librbd.so.1 librbd1 #MINVER#
 _Z15finish_contextsP11CephContextRSt4listIP7ContextSaIS3_EEi@Base 0.80
 _Z6decodeISsN4ceph6buffer4listEEvRSt3mapIT_T0_St4lessIS4_ESaISt4pairIKS4_S5_EEERNS2_8iteratorE@Base 0.80
 _ZN10C_CancelOp6finishEi@Base 0.80
 _ZN10C_CancelOpD0Ev@Base 0.80
 _ZN10C_CancelOpD1Ev@Base 0.80
 _ZN10C_CancelOpD2Ev@Base 0.80
 _ZN10C_SafeCond6finishEi@Base 0.80
 _ZN10C_SafeCondD0Ev@Base 0.80
 _ZN10C_SafeCondD1Ev@Base 0.80
 _ZN10C_SafeCondD2Ev@Base 0.80
 _ZN10Connection16revoke_rx_bufferEy@Base 0.80
 _ZN11MMonCommand14decode_payloadEv@Base 0.80
 _ZN11MMonCommand14encode_payloadEy@Base 0.80
 _ZN11MMonCommandD0Ev@Base 0.80
 _ZN11MMonCommandD1Ev@Base 0.80
 _ZN11MMonCommandD2Ev@Base 0.80
 _ZN12C_PurgeRange6finishEi@Base 0.80
 _ZN12C_PurgeRangeD0Ev@Base 0.80
 _ZN12C_PurgeRangeD1Ev@Base 0.80
 _ZN12C_PurgeRangeD2Ev@Base 0.80
 _ZN12ObjectCacher10BufferHeadC1EPNS_6ObjectE@Base 0.80
 _ZN12ObjectCacher10BufferHeadC2EPNS_6ObjectE@Base 0.80
 _ZN12ObjectCacher10BufferHeadD1Ev@Base 0.80
 _ZN12ObjectCacher10BufferHeadD2Ev@Base 0.80
 _ZN12ObjectCacher10get_objectE9sobject_tPNS_9ObjectSetER16object_locator_tyy@Base 0.80
 _ZN12ObjectCacher10mark_dirtyEPNS_10BufferHeadE@Base 0.80
 _ZN12ObjectCacher10perf_startEv@Base 0.80
 _ZN12ObjectCacher11C_RetryRead6finishEi@Base 0.80
 _ZN12ObjectCacher11C_RetryReadD0Ev@Base 0.80
 _ZN12ObjectCacher11C_RetryReadD1Ev@Base 0.80
 _ZN12ObjectCacher11C_RetryReadD2Ev@Base 0.80
 _ZN12ObjectCacher11bh_stat_addEPNS_10BufferHeadE@Base 0.80
 _ZN12ObjectCacher11bh_stat_subEPNS_10BufferHeadE@Base 0.80
 _ZN12ObjectCacher11discard_setEPNS_9ObjectSetERSt6vectorI12ObjectExtentSaIS3_EE@Base 0.80
 _ZN12ObjectCacher11release_allEv@Base 0.80
 _ZN12ObjectCacher11release_setEPNS_9ObjectSetE@Base 0.80
 _ZN12ObjectCacher12C_ReadFinish6finishEi@Base 0.80
 _ZN12ObjectCacher12C_ReadFinishD0Ev@Base 0.80
 _ZN12ObjectCacher12C_ReadFinishD1Ev@Base 0.80
 _ZN12ObjectCacher12C_ReadFinishD2Ev@Base 0.80
 _ZN12ObjectCacher12bh_set_stateEPNS_10BufferHeadEi@Base 0.80
 _ZN12ObjectCacher12close_objectEPNS_6ObjectE@Base 0.80
 _ZN12ObjectCacher12set_is_emptyEPNS_9ObjectSetE@Base 0.80
 _ZN12ObjectCacher13C_WriteCommit6finishEi@Base 0.80
 _ZN12ObjectCacher13C_WriteCommitD0Ev@Base 0.80
 _ZN12ObjectCacher13C_WriteCommitD1Ev@Base 0.80
 _ZN12ObjectCacher13C_WriteCommitD2Ev@Base 0.80
 _ZN12ObjectCacher13FlusherThread5entryEv@Base 0.80
 _ZN12ObjectCacher13FlusherThreadD0Ev@Base 0.80
 _ZN12ObjectCacher13FlusherThreadD1Ev@Base 0.80
 _ZN12ObjectCacher13FlusherThreadD2Ev@Base 0.80
 _ZN12ObjectCacher13flusher_entryEv@Base 0.80
 _ZN12ObjectCacher13set_is_cachedEPNS_9ObjectSetE@Base 0.80
 _ZN12ObjectCacher14C_WaitForWrite6finishEi@Base 0.80
 _ZN12ObjectCacher14C_WaitForWriteD0Ev@Base 0.80
 _ZN12ObjectCacher14C_WaitForWriteD1Ev@Base 0.80
 _ZN12ObjectCacher14C_WaitForWriteD2Ev@Base 0.80
 _ZN12ObjectCacher14bh_read_finishEx9sobject_tyxyRN4ceph6buffer4listEib@Base 0.80
 _ZN12ObjectCacher15_wait_for_writeEPNS_8OSDWriteEyPNS_9ObjectSetER5MutexP7Context@Base 0.80
 _ZN12ObjectCacher15bh_write_commitEx9sobject_txyyi@Base 0.80
 _ZN12ObjectCacher17_flush_set_finishEP15C_GatherBuilderP7Context@Base 0.80
 _ZN12ObjectCacher18clear_nonexistenceEPNS_9ObjectSetE@Base 0.80
 _ZN12ObjectCacher24maybe_wait_for_writebackEy@Base 0.80
 _ZN12ObjectCacher26set_is_dirty_or_committingEPNS_9ObjectSetE@Base 0.80
 _ZN12ObjectCacher4trimEv@Base 0.80
 _ZN12ObjectCacher5flushEPNS_6ObjectExx@Base 0.80
 _ZN12ObjectCacher5flushEx@Base 0.80
 _ZN12ObjectCacher5purgeEPNS_6ObjectE@Base 0.80
 _ZN12ObjectCacher5readxEPNS_7OSDReadEPNS_9ObjectSetEP7Context@Base 0.80
 _ZN12ObjectCacher6Object10merge_leftEPNS_10BufferHeadES2_@Base 0.80
 _ZN12ObjectCacher6Object12try_merge_bhEPNS_10BufferHeadE@Base 0.80
 _ZN12ObjectCacher6Object13audit_buffersEv@Base 0.80
 _ZN12ObjectCacher6Object16data_lower_boundEx@Base 0.80
 _ZN12ObjectCacher6Object5splitEPNS_10BufferHeadEx@Base 0.80
 _ZN12ObjectCacher6Object7discardExx@Base 0.80
 _ZN12ObjectCacher6Object8map_readEPNS_7OSDReadERSt3mapIxPNS_10BufferHeadESt4lessIxESaISt4pairIKxS5_EEESD_SD_SD_@Base 0.80
 _ZN12ObjectCacher6Object8truncateEx@Base 0.80
 _ZN12ObjectCacher6Object9is_cachedExx@Base 0.80
 _ZN12ObjectCacher6Object9map_writeEPNS_8OSDWriteE@Base 0.80
 _ZN12ObjectCacher6_readxEPNS_7OSDReadEPNS_9ObjectSetEP7Contextb@Base 0.80
 _ZN12ObjectCacher6bh_addEPNS_6ObjectEPNS_10BufferHeadE@Base 0.80
 _ZN12ObjectCacher6writexEPNS_8OSDWriteEPNS_9ObjectSetER5MutexP7Context@Base 0.80
 _ZN12ObjectCacher7OSDReadD1Ev@Base 0.80
 _ZN12ObjectCacher7OSDReadD2Ev@Base 0.80
 _ZN12ObjectCacher7bh_readEPNS_10BufferHeadE@Base 0.80
 _ZN12ObjectCacher7releaseEPNS_6ObjectE@Base 0.80
 _ZN12ObjectCacher8bh_writeEPNS_10BufferHeadE@Base 0.80
 _ZN12ObjectCacher8touch_bhEPNS_10BufferHeadE@Base 0.80
 _ZN12ObjectCacher9bh_removeEPNS_6ObjectEPNS_10BufferHeadE@Base 0.80
 _ZN12ObjectCacher9flush_setEPNS_9ObjectSetEP7Context@Base 0.80
 _ZN12ObjectCacher9flush_setEPNS_9ObjectSetERSt6vectorI12ObjectExtentSaIS3_EEP7Context@Base 0.80
 _ZN12ObjectCacher9is_cachedEPNS_9ObjectSetERSt6vectorI12ObjectExtentSaIS3_EE8snapid_t@Base 0.80
 _ZN12ObjectCacher9perf_stopEv@Base 0.80
 _ZN12ObjectCacher9purge_setEPNS_9ObjectSetE@Base 0.80
 _ZN12ObjectCacherC1EP11CephContextSsR16WritebackHandlerR5MutexPFvPvPNS_9ObjectSetEES6_yyyydb@Base 0.80
 _ZN12ObjectCacherC2EP11CephContextSsR16WritebackHandlerR5MutexPFvPvPNS_9ObjectSetEES6_yyyydb@Base 0.80
 _ZN12ObjectCacherD1Ev@Base 0.80
 _ZN12ObjectCacherD2Ev@Base 0.80
 _ZN12ObjectExtentC1ERKS_@Base 0.80
 _ZN12ObjectExtentC2ERKS_@Base 0.80
 _ZN12ObjectExtentD1Ev@Base 0.80
 _ZN12ObjectExtentD2Ev@Base 0.80
 _ZN12interval_setIyE15intersection_ofERKS0_@Base 0.80
 _ZN12interval_setIyE6insertEyy@Base 0.80
 _ZN13MGetPoolStats14decode_payloadEv@Base 0.80
 _ZN13MGetPoolStats14encode_payloadEy@Base 0.80
 _ZN13MGetPoolStatsD0Ev@Base 0.80
 _ZN13MGetPoolStatsD1Ev@Base 0.80
 _ZN13MGetPoolStatsD2Ev@Base 0.80
 _ZN14C_CancelPoolOp6finishEi@Base 0.80
 _ZN14C_CancelPoolOpD0Ev@Base 0.80
 _ZN14C_CancelPoolOpD1Ev@Base 0.80
 _ZN14C_CancelPoolOpD2Ev@Base 0.80
 _ZN15C_GatherBuilder7new_subEv@Base 0.80
 _ZN15C_GatherBuilder8activateEv@Base 0.80
 _ZN15C_GatherBuilderD1Ev@Base 0.80
 _ZN15C_GatherBuilderD2Ev@Base 0.80
 _ZN15ObjectOperation6add_opEi@Base 0.80
 _ZN15ObjectOperationD1Ev@Base 0.80
 _ZN15ObjectOperationD2Ev@Base 0.80
 _ZN15md_config_obs_t20handle_subsys_changeEPK11md_config_tRKSt3setIiSt4lessIiESaIiEE@Base 0.80
 _ZN16C_CancelStatfsOp6finishEi@Base 0.80
 _ZN16C_CancelStatfsOpD0Ev@Base 0.80
 _ZN16C_CancelStatfsOpD1Ev@Base 0.80
 _ZN16C_CancelStatfsOpD2Ev@Base 0.80
 _ZN16C_SimpleThrottle6finishEi@Base 0.80
 _ZN16C_SimpleThrottleD0Ev@Base 0.80
 _ZN16C_SimpleThrottleD1Ev@Base 0.80
 _ZN16C_SimpleThrottleD2Ev@Base 0.80
 _ZN16RefCountedObject3putEv@Base 0.80
 _ZN16RefCountedObjectD0Ev@Base 0.80
 _ZN16RefCountedObjectD1Ev@Base 0.80
 _ZN16RefCountedObjectD2Ev@Base 0.80
 _ZN16WritebackHandler4lockERK8object_tRK16object_locator_tiiP7ContextS7_@Base 0.80
 _ZN16cls_lock_lock_op23generate_test_instancesERSt4listIPS_SaIS1_EE@Base 0.80
 _ZN16cls_lock_lock_opD1Ev@Base 0.80
 _ZN16cls_lock_lock_opD2Ev@Base 0.80
 _ZN16object_locator_tD1Ev@Base 0.80
 _ZN16object_locator_tD2Ev@Base 0.80
 _ZN17C_CancelCommandOp6finishEi@Base 0.80
 _ZN17C_CancelCommandOpD0Ev@Base 0.80
 _ZN17C_CancelCommandOpD1Ev@Base 0.80
 _ZN17C_CancelCommandOpD2Ev@Base 0.80
 _ZN17C_SelfmanagedSnap6finishEi@Base 0.80
 _ZN17C_SelfmanagedSnapD0Ev@Base 0.80
 _ZN17C_SelfmanagedSnapD1Ev@Base 0.80
 _ZN17C_SelfmanagedSnapD2Ev@Base 0.80
 _ZN17cls_lock_break_op23generate_test_instancesERSt4listIPS_SaIS1_EE@Base 0.80
 _ZN17cls_lock_break_opD1Ev@Base 0.80
 _ZN17cls_lock_break_opD2Ev@Base 0.80
 _ZN18C_CancelPoolStatOp6finishEi@Base 0.80
 _ZN18C_CancelPoolStatOpD0Ev@Base 0.80
 _ZN18C_CancelPoolStatOpD1Ev@Base 0.80
 _ZN18C_CancelPoolStatOpD2Ev@Base 0.80
 _ZN18cls_lock_unlock_op23generate_test_instancesERSt4listIPS_SaIS1_EE@Base 0.80
 _ZN18cls_lock_unlock_opD1Ev@Base 0.80
 _ZN18cls_lock_unlock_opD2Ev@Base 0.80
 _ZN19C_Journaler_Prezero6finishEi@Base 0.80
 _ZN19C_Journaler_PrezeroD0Ev@Base 0.80
 _ZN19C_Journaler_PrezeroD1Ev@Base 0.80
 _ZN19C_Journaler_PrezeroD2Ev@Base 0.80
 _ZN19PaxosServiceMessage14decode_payloadEv@Base 0.80
 _ZN19PaxosServiceMessage14encode_payloadEy@Base 0.80
 _ZN19PaxosServiceMessageD0Ev@Base 0.80
 _ZN19PaxosServiceMessageD1Ev@Base 0.80
 _ZN19PaxosServiceMessageD2Ev@Base 0.80
 _ZN20cls_lock_get_info_op23generate_test_instancesERSt4listIPS_SaIS1_EE@Base 0.80
 _ZN21C_Objecter_GetVersion6finishEi@Base 0.80
 _ZN21C_Objecter_GetVersionD0Ev@Base 0.80
 _ZN21C_Objecter_GetVersionD1Ev@Base 0.80
 _ZN21C_Objecter_GetVersionD2Ev@Base 0.80
 _ZN23cls_lock_get_info_reply23generate_test_instancesERSt4listIPS_SaIS1_EE@Base 0.80
 _ZN25cls_lock_list_locks_reply23generate_test_instancesERSt4listIPS_SaIS1_EE@Base 0.80
 _ZN3LRU10lru_removeEP9LRUObject@Base 0.80
 _ZN3LRU14lru_insert_topEP9LRUObject@Base 0.80
 _ZN4Cond4WaitER5Mutex@Base 0.80
 _ZN4CondD0Ev@Base 0.80
 _ZN4CondD1Ev@Base 0.80
 _ZN4CondD2Ev@Base 0.80
 _ZN4ceph3log12SubsystemMap13should_gatherEji@Base 0.80
 _ZN4ceph6buffer15malformed_inputC1EPKc@Base 0.80
 _ZN4ceph6buffer15malformed_inputC2EPKc@Base 0.80
 _ZN4ceph6buffer15malformed_inputD0Ev@Base 0.80
 _ZN4ceph6buffer15malformed_inputD1Ev@Base 0.80
 _ZN4ceph6buffer15malformed_inputD2Ev@Base 0.80
 _ZN4ceph6buffer4listC1ERKS1_@Base 0.80
 _ZN4ceph6buffer4listC1Ev@Base 0.80
 _ZN4ceph6buffer4listC2ERKS1_@Base 0.80
 _ZN4ceph6buffer4listC2Ev@Base 0.80
 _ZN4ceph6buffer4listD1Ev@Base 0.80
 _ZN4ceph6buffer4listD2Ev@Base 0.80
 _ZN4ceph6buffer5errorD0Ev@Base 0.80
 _ZN4ceph6buffer5errorD1Ev@Base 0.80
 _ZN4ceph6buffer5errorD2Ev@Base 0.80
 _ZN5Filer11purge_rangeE9inodeno_tP16ceph_file_layoutRK11SnapContextyy7utime_tiP7Context@Base 0.80
 _ZN5Filer15_do_purge_rangeEP10PurgeRangei@Base 0.80
 _ZN5Filer5ProbeD1Ev@Base 0.80
 _ZN5Filer5ProbeD2Ev@Base 0.80
 _ZN5Filer5probeE9inodeno_tP16ceph_file_layout8snapid_tyPyP7utime_tbiP7Context@Base 0.80
 _ZN5Filer6_probeEPNS_5ProbeE@Base 0.80
 _ZN5Filer7C_Probe6finishEi@Base 0.80
 _ZN5Filer7C_ProbeD0Ev@Base 0.80
 _ZN5Filer7C_ProbeD1Ev@Base 0.80
 _ZN5Filer7C_ProbeD2Ev@Base 0.80
 _ZN5Filer7_probedEPNS_5ProbeERK8object_ty7utime_t@Base 0.80
 _ZN5MPing14decode_payloadEv@Base 0.80
 _ZN5MPing14encode_payloadEy@Base 0.80
 _ZN5MPingD0Ev@Base 0.80
 _ZN5MPingD1Ev@Base 0.80
 _ZN5MPingD2Ev@Base 0.80
 _ZN5Mutex6UnlockEv@Base 0.80
 _ZN5OSDOpC1Ev@Base 0.80
 _ZN5OSDOpC2Ev@Base 0.80
 _ZN5OSDOpD1Ev@Base 0.80
 _ZN5OSDOpD2Ev@Base 0.80
 _ZN5rados3cls4lock10break_lockEPN8librados20ObjectWriteOperationERKSsS6_RK13entity_name_t@Base 0.80
 _ZN5rados3cls4lock10break_lockEPN8librados5IoCtxERKSsS6_S6_RK13entity_name_t@Base 0.80
 _ZN5rados3cls4lock10list_locksEPN8librados5IoCtxERKSsPSt4listISsSaISsEE@Base 0.80
 _ZN5rados3cls4lock11locker_id_t23generate_test_instancesERSt4listIPS2_SaIS4_EE@Base 0.80
 _ZN5rados3cls4lock13get_lock_infoEPN8librados5IoCtxERKSsS6_PSt3mapINS1_11locker_id_tENS1_13locker_info_tESt4lessIS8_ESaISt4pairIKS8_S9_EEEP11ClsLockTypePSs@Base 0.80
 _ZN5rados3cls4lock13locker_info_t23generate_test_instancesERSt4listIPS2_SaIS4_EE@Base 0.80
 _ZN5rados3cls4lock19get_lock_info_startEPN8librados19ObjectReadOperationERKSs@Base 0.80
 _ZN5rados3cls4lock20get_lock_info_finishEPN4ceph6buffer4list8iteratorEPSt3mapINS1_11locker_id_tENS1_13locker_info_tESt4lessIS8_ESaISt4pairIKS8_S9_EEEP11ClsLockTypePSs@Base 0.80
 _ZN5rados3cls4lock4Lock10break_lockEPN8librados20ObjectWriteOperationERK13entity_name_t@Base 0.80
 _ZN5rados3cls4lock4Lock10break_lockEPN8librados5IoCtxERKSsRK13entity_name_t@Base 0.80
 _ZN5rados3cls4lock4Lock11lock_sharedEPN8librados20ObjectWriteOperationE@Base 0.80
 _ZN5rados3cls4lock4Lock11lock_sharedEPN8librados5IoCtxERKSs@Base 0.80
 _ZN5rados3cls4lock4Lock14lock_exclusiveEPN8librados20ObjectWriteOperationE@Base 0.80
 _ZN5rados3cls4lock4Lock14lock_exclusiveEPN8librados5IoCtxERKSs@Base 0.80
 _ZN5rados3cls4lock4Lock6unlockEPN8librados20ObjectWriteOperationE@Base 0.80
 _ZN5rados3cls4lock4Lock6unlockEPN8librados5IoCtxERKSs@Base 0.80
 _ZN5rados3cls4lock4lockEPN8librados20ObjectWriteOperationERKSs11ClsLockTypeS6_S6_S6_RK7utime_th@Base 0.80
 _ZN5rados3cls4lock4lockEPN8librados5IoCtxERKSsS6_11ClsLockTypeS6_S6_S6_RK7utime_th@Base 0.80
 _ZN5rados3cls4lock6unlockEPN8librados20ObjectWriteOperationERKSsS6_@Base 0.80
 _ZN5rados3cls4lock6unlockEPN8librados5IoCtxERKSsS6_S6_@Base 0.80
 _ZN5xlistIPN12ObjectCacher12C_ReadFinishEE4itemD1Ev@Base 0.80
 _ZN5xlistIPN12ObjectCacher12C_ReadFinishEE4itemD2Ev@Base 0.80
 _ZN5xlistIPN12ObjectCacher12C_ReadFinishEED1Ev@Base 0.80
 _ZN5xlistIPN12ObjectCacher12C_ReadFinishEED2Ev@Base 0.80
 _ZN5xlistIPN12ObjectCacher6ObjectEE4itemD1Ev@Base 0.80
 _ZN5xlistIPN12ObjectCacher6ObjectEE4itemD2Ev@Base 0.80
 _ZN5xlistIPN8Objecter2OpEE4itemD1Ev@Base 0.80
 _ZN5xlistIPN8Objecter2OpEE4itemD2Ev@Base 0.80
 _ZN6C_Cond6finishEi@Base 0.80
 _ZN6C_CondD0Ev@Base 0.80
 _ZN6C_CondD1Ev@Base 0.80
 _ZN6C_CondD2Ev@Base 0.80
 _ZN6HitSet6ParamsD0Ev@Base 0.80
 _ZN6HitSet6ParamsD1Ev@Base 0.80
 _ZN6HitSet6ParamsD2Ev@Base 0.80
 _ZN6MOSDOp13clear_buffersEv@Base 0.80
 _ZN6MOSDOp14decode_payloadEv@Base 0.80
 _ZN6MOSDOp14encode_payloadEy@Base 0.80
 _ZN6MOSDOpD0Ev@Base 0.80
 _ZN6MOSDOpD1Ev@Base 0.80
 _ZN6MOSDOpD2Ev@Base 0.80
 _ZN6OSDMap11IncrementalD1Ev@Base 0.80
 _ZN6OSDMap11IncrementalD2Ev@Base 0.80
 _ZN6RWLock9get_writeEv@Base 0.80
 _ZN6RWLockD0Ev@Base 0.80
 _ZN6RWLockD1Ev@Base 0.80
 _ZN6RWLockD2Ev@Base 0.80
 _ZN6librbd10AioRequest16read_from_parentERSt6vectorISt4pairIyyESaIS3_EE@Base 0.80
 _ZN6librbd10AioRequestC1EPNS_8ImageCtxERKSsyyyyP7Contextb@Base 0.80
 _ZN6librbd10AioRequestC1Ev@Base 0.80
 _ZN6librbd10AioRequestC2EPNS_8ImageCtxERKSsyyyyP7Contextb@Base 0.80
 _ZN6librbd10AioRequestC2Ev@Base 0.80
 _ZN6librbd10AioRequestD0Ev@Base 0.80
 _ZN6librbd10AioRequestD1Ev@Base 0.80
 _ZN6librbd10AioRequestD2Ev@Base 0.80
 _ZN6librbd10C_AioWrite6finishEi@Base 0.80
 _ZN6librbd10C_AioWriteD0Ev@Base 0.80
 _ZN6librbd10C_AioWriteD1Ev@Base 0.80
 _ZN6librbd10C_AioWriteD2Ev@Base 0.80
 _ZN6librbd10C_CopyRead6finishEi@Base 0.80
 _ZN6librbd10C_CopyReadD0Ev@Base 0.80
 _ZN6librbd10C_CopyReadD1Ev@Base 0.80
 _ZN6librbd10C_CopyReadD2Ev@Base 0.80
 _ZN6librbd10break_lockEPNS_8ImageCtxERKSsS3_@Base 0.80
 _ZN6librbd10cls_client10dir_get_idEPN8librados5IoCtxERKSsS5_PSs@Base 0.80
 _ZN6librbd10cls_client10get_parentEPN8librados5IoCtxERKSs8snapid_tPNS_11parent_specEPy@Base 0.80
 _ZN6librbd10cls_client10set_parentEPN8librados5IoCtxERKSsNS_11parent_specEy@Base 0.80
 _ZN6librbd10cls_client12create_imageEPN8librados5IoCtxERKSsyhyS5_@Base 0.80
 _ZN6librbd10cls_client12dir_get_nameEPN8librados5IoCtxERKSsS5_PSs@Base 0.80
 _ZN6librbd10cls_client12get_childrenEPN8librados5IoCtxERKSsNS_11parent_specERSt3setISsSt4lessISsESaISsEE@Base 0.80
 _ZN6librbd10cls_client12get_featuresEPN8librados5IoCtxERKSs8snapid_tPy@Base 0.80
 _ZN6librbd10cls_client12remove_childEPN8librados5IoCtxERKSsNS_11parent_specES5_@Base 0.80
 _ZN6librbd10cls_client12snapshot_addEPN8librados5IoCtxERKSs8snapid_tS5_@Base 0.80
 _ZN6librbd10cls_client13dir_add_imageEPN8librados5IoCtxERKSsS5_S5_@Base 0.80
 _ZN6librbd10cls_client13remove_parentEPN8librados5IoCtxERKSs@Base 0.80
 _ZN6librbd10cls_client13snapshot_listEPN8librados5IoCtxERKSsRKSt6vectorI8snapid_tSaIS7_EEPS6_ISsSaISsEEPS6_IySaIyEESH_PS6_INS_11parent_infoESaISI_EEPS6_IhSaIhEE@Base 0.80
 _ZN6librbd10cls_client15get_snapcontextEPN8librados5IoCtxERKSsP11SnapContext@Base 0.80
 _ZN6librbd10cls_client15snapshot_removeEPN8librados5IoCtxERKSs8snapid_t@Base 0.80
 _ZN6librbd10cls_client16dir_remove_imageEPN8librados5IoCtxERKSsS5_S5_@Base 0.80
 _ZN6librbd10cls_client16dir_rename_imageEPN8librados5IoCtxERKSsS5_S5_S5_@Base 0.80
 _ZN6librbd10cls_client16old_snapshot_addEPN8librados5IoCtxERKSs8snapid_tS5_@Base 0.80
 _ZN6librbd10cls_client17get_object_prefixEPN8librados5IoCtxERKSsPSs@Base 0.80
 _ZN6librbd10cls_client17old_snapshot_listEPN8librados5IoCtxERKSsPSt6vectorISsSaISsEEPS6_IySaIyEEP11SnapContext@Base 0.80
 _ZN6librbd10cls_client19old_snapshot_removeEPN8librados5IoCtxERKSsS5_@Base 0.80
 _ZN6librbd10cls_client20get_mutable_metadataEPN8librados5IoCtxERKSsPyS6_S6_PSt3mapIN5rados3cls4lock11locker_id_tENSA_13locker_info_tESt4lessISB_ESaISt4pairIKSB_SC_EEEPbPSsP11SnapContextPNS_11parent_infoE@Base 0.80
 _ZN6librbd10cls_client21get_protection_statusEPN8librados5IoCtxERKSs8snapid_tPh@Base 0.80
 _ZN6librbd10cls_client21get_stripe_unit_countEPN8librados5IoCtxERKSsPyS6_@Base 0.80
 _ZN6librbd10cls_client21set_protection_statusEPN8librados5IoCtxERKSs8snapid_th@Base 0.80
 _ZN6librbd10cls_client21set_stripe_unit_countEPN8librados5IoCtxERKSsyy@Base 0.80
 _ZN6librbd10cls_client22get_immutable_metadataEPN8librados5IoCtxERKSsPSsPh@Base 0.80
 _ZN6librbd10cls_client6copyupEPN8librados5IoCtxERKSsN4ceph6buffer4listE@Base 0.80
 _ZN6librbd10cls_client6get_idEPN8librados5IoCtxERKSsPSs@Base 0.80
 _ZN6librbd10cls_client6set_idEPN8librados5IoCtxERKSsSs@Base 0.80
 _ZN6librbd10cls_client8dir_listEPN8librados5IoCtxERKSsS5_yPSt3mapISsSsSt4lessISsESaISt4pairIS4_SsEEE@Base 0.80
 _ZN6librbd10cls_client8get_sizeEPN8librados5IoCtxERKSs8snapid_tPyPh@Base 0.80
 _ZN6librbd10cls_client8set_sizeEPN8librados5IoCtxERKSsy@Base 0.80
 _ZN6librbd10cls_client9add_childEPN8librados5IoCtxERKSsNS_11parent_specES5_@Base 0.80
 _ZN6librbd10context_cbEPvS0_@Base 0.80
 _ZN6librbd10has_parentExyy@Base 0.80
 _ZN6librbd10ictx_checkEPNS_8ImageCtxE@Base 0.80
 _ZN6librbd10image_infoEPNS_8ImageCtxER16rbd_image_info_tj@Base 0.80
 _ZN6librbd10open_imageEPNS_8ImageCtxE@Base 0.80
 _ZN6librbd10rbd_ctx_cbEPvS0_@Base 0.80
 _ZN6librbd10rbd_req_cbEPvS0_@Base 0.80
 _ZN6librbd10trim_imageEPNS_8ImageCtxEyRNS_15ProgressContextE@Base 0.80
 _ZN6librbd11AioTruncate14add_copyup_opsEv@Base 0.80
 _ZN6librbd11AioTruncateD0Ev@Base 0.80
 _ZN6librbd11AioTruncateD1Ev@Base 0.80
 _ZN6librbd11AioTruncateD2Ev@Base 0.80
 _ZN6librbd11C_CacheRead6finishEi@Base 0.80
 _ZN6librbd11C_CacheReadD0Ev@Base 0.80
 _ZN6librbd11C_CacheReadD1Ev@Base 0.80
 _ZN6librbd11C_CacheReadD2Ev@Base 0.80
 _ZN6librbd11C_CopyWrite6finishEi@Base 0.80
 _ZN6librbd11C_CopyWriteD0Ev@Base 0.80
 _ZN6librbd11C_CopyWriteD1Ev@Base 0.80
 _ZN6librbd11C_CopyWriteD2Ev@Base 0.80
 _ZN6librbd11aio_discardEPNS_8ImageCtxEyyPNS_13AioCompletionE@Base 0.80
 _ZN6librbd11close_imageEPNS_8ImageCtxE@Base 0.80
 _ZN6librbd11get_overlapEPNS_8ImageCtxEPy@Base 0.80
 _ZN6librbd11header_nameERKSs@Base 0.80
 _ZN6librbd11id_obj_nameERKSs@Base 0.80
 _ZN6librbd11open_parentEPNS_8ImageCtxE@Base 0.80
 _ZN6librbd11read_headerERN8librados5IoCtxERKSsP21rbd_obj_header_ondiskPy@Base 0.80
 _ZN6librbd11snap_createEPNS_8ImageCtxEPKc@Base 0.80
 _ZN6librbd11snap_existsEPNS_8ImageCtxEPKc@Base 0.80
 _ZN6librbd11snap_removeEPNS_8ImageCtxEPKc@Base 0.80
 _ZN6librbd12diff_iterateEPNS_8ImageCtxEPKcyyPFiyjiPvES4_@Base 0.80
 _ZN6librbd12get_featuresEPNS_8ImageCtxEPy@Base 0.80
 _ZN6librbd12ictx_refreshEPNS_8ImageCtxE@Base 0.80
 _ZN6librbd12list_lockersEPNS_8ImageCtxEPSt4listINS_8locker_tESaIS3_EEPbPSs@Base 0.80
 _ZN6librbd12rados_ctx_cbEPvS0_@Base 0.80
 _ZN6librbd12rados_req_cbEPvS0_@Base 0.80
 _ZN6librbd12read_iterateEPNS_8ImageCtxEyyPFiyjPKcPvES4_@Base 0.80
 _ZN6librbd12snap_protectEPNS_8ImageCtxEPKc@Base 0.80
 _ZN6librbd12write_headerERN8librados5IoCtxERKSsRN4ceph6buffer4listE@Base 0.80
 _ZN6librbd13AbstractWrite11guard_writeEv@Base 0.80
 _ZN6librbd13AbstractWrite11send_copyupEv@Base 0.80
 _ZN6librbd13AbstractWrite15should_completeEi@Base 0.80
 _ZN6librbd13AbstractWrite4sendEv@Base 0.80
 _ZN6librbd13AbstractWriteC1EPNS_8ImageCtxERKSsyyyRSt6vectorISt4pairIyyESaIS7_EEyRK11SnapContextyP7Contextb@Base 0.80
 _ZN6librbd13AbstractWriteC1Ev@Base 0.80
 _ZN6librbd13AbstractWriteC2EPNS_8ImageCtxERKSsyyyRSt6vectorISt4pairIyyESaIS7_EEyRK11SnapContextyP7Contextb@Base 0.80
 _ZN6librbd13AbstractWriteC2Ev@Base 0.80
 _ZN6librbd13AbstractWriteD0Ev@Base 0.80
 _ZN6librbd13AbstractWriteD1Ev@Base 0.80
 _ZN6librbd13AbstractWriteD2Ev@Base 0.80
 _ZN6librbd13AioCompletion10put_unlockEv@Base 0.80
 _ZN6librbd13AioCompletion11add_requestEv@Base 0.80
 _ZN6librbd13AioCompletion16complete_requestEP11CephContexti@Base 0.80
 _ZN6librbd13AioCompletion22finish_adding_requestsEP11CephContext@Base 0.80
 _ZN6librbd13AioCompletion3getEv@Base 0.80
 _ZN6librbd13AioCompletion7releaseEv@Base 0.80
 _ZN6librbd13AioCompletion8completeEv@Base 0.80
 _ZN6librbd13AioCompletion8finalizeEP11CephContexti@Base 0.80
 _ZN6librbd13detect_formatERN8librados5IoCtxERKSsPbPy@Base 0.80
 _ZN6librbd13init_rbd_infoEP8rbd_info@Base 0.80
 _ZN6librbd13list_childrenEPNS_8ImageCtxERSt3setISt4pairISsSsESt4lessIS4_ESaIS4_EE@Base 0.80
 _ZN6librbd13notify_changeERN8librados5IoCtxERKSsPyPNS_8ImageCtxE@Base 0.80
 _ZN6librbd13read_rbd_infoERN8librados5IoCtxERKSsP8rbd_info@Base 0.80
 _ZN6librbd13resize_helperEPNS_8ImageCtxEyRNS_15ProgressContextE@Base 0.80
 _ZN6librbd13snap_rollbackEPNS_8ImageCtxEPKcRNS_15ProgressContextE@Base 0.80
 _ZN6librbd14C_OrderedWrite6finishEi@Base 0.80
 _ZN6librbd14C_OrderedWriteD0Ev@Base 0.80
 _ZN6librbd14C_OrderedWriteD1Ev@Base 0.80
 _ZN6librbd14C_OrderedWriteD2Ev@Base 0.80
 _ZN6librbd14do_copy_extentEyjPKcPv@Base 0.80
 _ZN6librbd14get_old_formatEPNS_8ImageCtxEPh@Base 0.80
 _ZN6librbd14read_header_blERN8librados5IoCtxERKSsRN4ceph6buffer4listEPy@Base 0.80
 _ZN6librbd14refresh_parentEPNS_8ImageCtxE@Base 0.80
 _ZN6librbd14rollback_imageEPNS_8ImageCtxEyRNS_15ProgressContextE@Base 0.80
 _ZN6librbd14simple_diff_cbEyjiPv@Base 0.80
 _ZN6librbd14simple_read_cbEyjPKcPv@Base 0.80
 _ZN6librbd14snap_unprotectEPNS_8ImageCtxEPKc@Base 0.80
 _ZN6librbd15LibrbdWriteback15complete_writesERKSs@Base 0.80
 _ZN6librbd15LibrbdWriteback17may_copy_on_writeERK8object_tyy8snapid_t@Base 0.80
 _ZN6librbd15LibrbdWriteback4readERK8object_tRK16object_locator_tyy8snapid_tPN4ceph6buffer4listEyjP7Context@Base 0.80
 _ZN6librbd15LibrbdWriteback5writeERK8object_tRK16object_locator_tyyRK11SnapContextRKN4ceph6buffer4listE7utime_tyjP7Context@Base 0.80
 _ZN6librbd15LibrbdWritebackC1EPNS_8ImageCtxER5Mutex@Base 0.80
 _ZN6librbd15LibrbdWritebackC2EPNS_8ImageCtxER5Mutex@Base 0.80
 _ZN6librbd15LibrbdWritebackD0Ev@Base 0.80
 _ZN6librbd15LibrbdWritebackD1Ev@Base 0.80
 _ZN6librbd15LibrbdWritebackD2Ev@Base 0.80
 _ZN6librbd15ProgressContextD0Ev@Base 0.80
 _ZN6librbd15ProgressContextD1Ev@Base 0.80
 _ZN6librbd15ProgressContextD2Ev@Base 0.80
 _ZN6librbd15get_parent_infoEPNS_8ImageCtxEPSsS2_S2_@Base 0.80
 _ZN6librbd15init_rbd_headerER21rbd_obj_header_ondiskyiy@Base 0.80
 _ZN6librbd15old_header_nameERKSs@Base 0.80
 _ZN6librbd16CProgressContext15update_progressEyy@Base 0.80
 _ZN6librbd16CProgressContextD0Ev@Base 0.80
 _ZN6librbd16CProgressContextD1Ev@Base 0.80
 _ZN6librbd16CProgressContextD2Ev@Base 0.80
 _ZN6librbd16invalidate_cacheEPNS_8ImageCtxE@Base 0.80
 _ZN6librbd16oid_to_object_noERKSsS1_@Base 0.80
 _ZN6librbd17snap_is_protectedEPNS_8ImageCtxEPKcPb@Base 0.80
 _ZN6librbd18handle_sparse_readEP11CephContextN4ceph6buffer4listEyRKSt3mapIyySt4lessIyESaISt4pairIKyyEEEyjPc@Base 0.80
 _ZN6librbd19NoOpProgressContext15update_progressEyy@Base 0.80
 _ZN6librbd19NoOpProgressContextD0Ev@Base 0.80
 _ZN6librbd19NoOpProgressContextD1Ev@Base 0.80
 _ZN6librbd19NoOpProgressContextD2Ev@Base 0.80
 _ZN6librbd21aio_create_completionEPvPFvS0_S0_E@Base 0.80
 _ZN6librbd21aio_create_completionEv@Base 0.80
 _ZN6librbd30aio_create_completion_internalEPvPFvS0_S0_E@Base 0.80
 _ZN6librbd3RBD13AioCompletion11is_completeEv@Base 0.80
 _ZN6librbd3RBD13AioCompletion16get_return_valueEv@Base 0.80
 _ZN6librbd3RBD13AioCompletion17wait_for_completeEv@Base 0.80
 _ZN6librbd3RBD13AioCompletion7releaseEv@Base 0.80
 _ZN6librbd3RBD13AioCompletionC1EPvPFvS2_S2_E@Base 0.80
 _ZN6librbd3RBD13AioCompletionC2EPvPFvS2_S2_E@Base 0.80
 _ZN6librbd3RBD14open_read_onlyERN8librados5IoCtxERNS_5ImageEPKcS7_@Base 0.80
 _ZN6librbd3RBD20remove_with_progressERN8librados5IoCtxEPKcRNS_15ProgressContextE@Base 0.80
 _ZN6librbd3RBD4listERN8librados5IoCtxERSt6vectorISsSaISsEE@Base 0.80
 _ZN6librbd3RBD4openERN8librados5IoCtxERNS_5ImageEPKc@Base 0.80
 _ZN6librbd3RBD4openERN8librados5IoCtxERNS_5ImageEPKcS7_@Base 0.80
 _ZN6librbd3RBD5cloneERN8librados5IoCtxEPKcS5_S3_S5_yPi@Base 0.80
 _ZN6librbd3RBD6clone2ERN8librados5IoCtxEPKcS5_S3_S5_yPiyi@Base 0.80
 _ZN6librbd3RBD6createERN8librados5IoCtxEPKcyPi@Base 0.80
 _ZN6librbd3RBD6removeERN8librados5IoCtxEPKc@Base 0.80
 _ZN6librbd3RBD6renameERN8librados5IoCtxEPKcS5_@Base 0.80
 _ZN6librbd3RBD7create2ERN8librados5IoCtxEPKcyyPi@Base 0.80
 _ZN6librbd3RBD7create3ERN8librados5IoCtxEPKcyyPiyy@Base 0.80
 _ZN6librbd3RBD7versionEPiS1_S1_@Base 0.80
 _ZN6librbd3RBDC1Ev@Base 0.80
 _ZN6librbd3RBDC2Ev@Base 0.80
 _ZN6librbd3RBDD1Ev@Base 0.80
 _ZN6librbd3RBDD2Ev@Base 0.80
 _ZN6librbd4copyEPNS_8ImageCtxERN8librados5IoCtxEPKcRNS_15ProgressContextE@Base 0.80
 _ZN6librbd4copyEPNS_8ImageCtxES1_RNS_15ProgressContextE@Base 0.80
 _ZN6librbd4infoEPNS_8ImageCtxER16rbd_image_info_tj@Base 0.80
 _ZN6librbd4listERN8librados5IoCtxERSt6vectorISsSaISsEE@Base 0.80
 _ZN6librbd4lockEPNS_8ImageCtxEbRKSsS3_@Base 0.80
 _ZN6librbd4readEPNS_8ImageCtxERKSt6vectorISt4pairIyyESaIS4_EEPcPN4ceph6buffer4listE@Base 0.80
 _ZN6librbd4readEPNS_8ImageCtxEyjPc@Base 0.80
 _ZN6librbd5Image10break_lockERKSsS2_@Base 0.80
 _ZN6librbd5Image10old_formatEPh@Base 0.80
 _ZN6librbd5Image11aio_discardEyyPNS_3RBD13AioCompletionE@Base 0.80
 _ZN6librbd5Image11lock_sharedERKSsS2_@Base 0.80
 _ZN6librbd5Image11parent_infoEPSsS1_S1_@Base 0.80
 _ZN6librbd5Image11snap_createEPKc@Base 0.80
 _ZN6librbd5Image11snap_existsEPKc@Base 0.80
 _ZN6librbd5Image11snap_removeEPKc@Base 0.80
 _ZN6librbd5Image12diff_iterateEPKcyyPFiyjiPvES3_@Base 0.80
 _ZN6librbd5Image12list_lockersEPSt4listINS_8locker_tESaIS2_EEPbPSs@Base 0.80
 _ZN6librbd5Image12read_iterateEyjPFiyjPKcPvES3_@Base 0.80
 _ZN6librbd5Image12snap_protectEPKc@Base 0.80
 _ZN6librbd5Image13list_childrenEPSt3setISt4pairISsSsESt4lessIS3_ESaIS3_EE@Base 0.80
 _ZN6librbd5Image13read_iterate2EyyPFiyjPKcPvES3_@Base 0.80
 _ZN6librbd5Image13snap_rollbackEPKc@Base 0.80
 _ZN6librbd5Image14lock_exclusiveERKSs@Base 0.80
 _ZN6librbd5Image14snap_unprotectEPKc@Base 0.80
 _ZN6librbd5Image16invalidate_cacheEv@Base 0.80
 _ZN6librbd5Image17snap_is_protectedEPKcPb@Base 0.80
 _ZN6librbd5Image18copy_with_progressERN8librados5IoCtxEPKcRNS_15ProgressContextE@Base 0.80
 _ZN6librbd5Image19copy_with_progress2ERS0_RNS_15ProgressContextE@Base 0.80
 _ZN6librbd5Image20resize_with_progressEyRNS_15ProgressContextE@Base 0.80
 _ZN6librbd5Image21flatten_with_progressERNS_15ProgressContextE@Base 0.80
 _ZN6librbd5Image27snap_rollback_with_progressEPKcRNS_15ProgressContextE@Base 0.80
 _ZN6librbd5Image4copyERN8librados5IoCtxEPKc@Base 0.80
 _ZN6librbd5Image4readEyjRN4ceph6buffer4listE@Base 0.80
 _ZN6librbd5Image4sizeEPy@Base 0.80
 _ZN6librbd5Image4statER16rbd_image_info_tj@Base 0.80
 _ZN6librbd5Image5copy2ERS0_@Base 0.80
 _ZN6librbd5Image5flushEv@Base 0.80
 _ZN6librbd5Image5writeEyjRN4ceph6buffer4listE@Base 0.80
 _ZN6librbd5Image6resizeEy@Base 0.80
 _ZN6librbd5Image6unlockERKSs@Base 0.80
 _ZN6librbd5Image7discardEyy@Base 0.80
 _ZN6librbd5Image7flattenEv@Base 0.80
 _ZN6librbd5Image7overlapEPy@Base 0.80
 _ZN6librbd5Image8aio_readEyjRN4ceph6buffer4listEPNS_3RBD13AioCompletionE@Base 0.80
 _ZN6librbd5Image8featuresEPy@Base 0.80
 _ZN6librbd5Image8snap_setEPKc@Base 0.80
 _ZN6librbd5Image9aio_flushEPNS_3RBD13AioCompletionE@Base 0.80
 _ZN6librbd5Image9aio_writeEyjRN4ceph6buffer4listEPNS_3RBD13AioCompletionE@Base 0.80
 _ZN6librbd5Image9snap_listERSt6vectorINS_11snap_info_tESaIS2_EE@Base 0.80
 _ZN6librbd5ImageC1Ev@Base 0.80
 _ZN6librbd5ImageC2Ev@Base 0.80
 _ZN6librbd5ImageD1Ev@Base 0.80
 _ZN6librbd5ImageD2Ev@Base 0.80
 _ZN6librbd5cloneERN8librados5IoCtxEPKcS4_S2_S4_yPiyi@Base 0.80
 _ZN6librbd5flushEPNS_8ImageCtxE@Base 0.80
 _ZN6librbd5writeEPNS_8ImageCtxEyjPKc@Base 0.80
 _ZN6librbd6_flushEPNS_8ImageCtxE@Base 0.80
 _ZN6librbd6createERN8librados5IoCtxEPKcyPi@Base 0.80
 _ZN6librbd6createERN8librados5IoCtxEPKcybyPiyy@Base 0.80
 _ZN6librbd6removeERN8librados5IoCtxEPKcRNS_15ProgressContextE@Base 0.80
 _ZN6librbd6renameERN8librados5IoCtxEPKcS4_@Base 0.80
 _ZN6librbd6resizeEPNS_8ImageCtxEyRNS_15ProgressContextE@Base 0.80
 _ZN6librbd6unlockEPNS_8ImageCtxERKSs@Base 0.80
 _ZN6librbd7AioRead15should_completeEi@Base 0.80
 _ZN6librbd7AioRead4sendEv@Base 0.80
 _ZN6librbd7AioReadD0Ev@Base 0.80
 _ZN6librbd7AioReadD1Ev@Base 0.80
 _ZN6librbd7AioReadD2Ev@Base 0.80
 _ZN6librbd7AioZero14add_copyup_opsEv@Base 0.80
 _ZN6librbd7AioZeroD0Ev@Base 0.80
 _ZN6librbd7AioZeroD1Ev@Base 0.80
 _ZN6librbd7AioZeroD2Ev@Base 0.80
 _ZN6librbd7clip_ioEPNS_8ImageCtxEyPy@Base 0.80
 _ZN6librbd7discardEPNS_8ImageCtxEyy@Base 0.80
 _ZN6librbd7flattenEPNS_8ImageCtxERNS_15ProgressContextE@Base 0.80
 _ZN6librbd7rm_snapEPNS_8ImageCtxEPKc@Base 0.80
 _ZN6librbd7tmap_rmERN8librados5IoCtxERKSs@Base 0.80
 _ZN6librbd8AioWrite13add_write_opsERN8librados20ObjectWriteOperationE@Base 0.80
 _ZN6librbd8AioWrite14add_copyup_opsEv@Base 0.80
 _ZN6librbd8AioWriteD0Ev@Base 0.80
 _ZN6librbd8AioWriteD1Ev@Base 0.80
 _ZN6librbd8AioWriteD2Ev@Base 0.80
 _ZN6librbd8ImageCtx10perf_startESs@Base 0.80
 _ZN6librbd8ImageCtx10snap_unsetEv@Base 0.80
 _ZN6librbd8ImageCtx11flush_cacheEv@Base 0.80
 _ZN6librbd8ImageCtx11init_layoutEv@Base 0.80
 _ZN6librbd8ImageCtx12user_flushedEv@Base 0.80
 _ZN6librbd8ImageCtx13parent_io_lenEyjy@Base 0.80
 _ZN6librbd8ImageCtx13set_read_flagEj@Base 0.80
 _ZN6librbd8ImageCtx14get_read_flagsEy@Base 0.80
 _ZN6librbd8ImageCtx14register_watchEv@Base 0.80
 _ZN6librbd8ImageCtx14shutdown_cacheEv@Base 0.80
 _ZN6librbd8ImageCtx14write_to_cacheE8object_tRN4ceph6buffer4listEjyP7Context@Base 0.80
 _ZN6librbd8ImageCtx15flush_cache_aioEP7Context@Base 0.80
 _ZN6librbd8ImageCtx15get_parent_specE8snapid_tPNS_11parent_specE@Base 0.80
 _ZN6librbd8ImageCtx15read_from_cacheE8object_tPN4ceph6buffer4listEjy@Base 0.80
 _ZN6librbd8ImageCtx16invalidate_cacheEv@Base 0.80
 _ZN6librbd8ImageCtx16unregister_watchEv@Base 0.80
 _ZN6librbd8ImageCtx19aio_read_from_cacheE8object_tPN4ceph6buffer4listEjyP7Context@Base 0.80
 _ZN6librbd8ImageCtx20prune_parent_extentsERSt6vectorISt4pairIyyESaIS3_EEy@Base 0.80
 _ZN6librbd8ImageCtx24clear_nonexistence_cacheEv@Base 0.80
 _ZN6librbd8ImageCtx4initEv@Base 0.80
 _ZN6librbd8ImageCtx8add_snapESsyyyNS_11parent_infoEh@Base 0.80
 _ZN6librbd8ImageCtx8snap_setESs@Base 0.80
 _ZN6librbd8ImageCtx9perf_stopEv@Base 0.80
 _ZN6librbd8ImageCtxC1ERKSsS2_PKcRN8librados5IoCtxEb@Base 0.80
 _ZN6librbd8ImageCtxC2ERKSsS2_PKcRN8librados5IoCtxEb@Base 0.80
 _ZN6librbd8ImageCtxD1Ev@Base 0.80
 _ZN6librbd8ImageCtxD2Ev@Base 0.80
 _ZN6librbd8WatchCtx10invalidateEv@Base 0.80
 _ZN6librbd8WatchCtx6notifyEhyRN4ceph6buffer4listE@Base 0.80
 _ZN6librbd8WatchCtxD0Ev@Base 0.80
 _ZN6librbd8WatchCtxD1Ev@Base 0.80
 _ZN6librbd8WatchCtxD2Ev@Base 0.80
 _ZN6librbd8add_snapEPNS_8ImageCtxEPKc@Base 0.80
 _ZN6librbd8aio_readEPNS_8ImageCtxERKSt6vectorISt4pairIyyESaIS4_EEPcPN4ceph6buffer4listEPNS_13AioCompletionE@Base 0.80
 _ZN6librbd8aio_readEPNS_8ImageCtxEyjPcPN4ceph6buffer4listEPNS_13AioCompletionE@Base 0.80
 _ZN6librbd8get_sizeEPNS_8ImageCtxEPy@Base 0.80
 _ZN6librbd8locker_tD1Ev@Base 0.80
 _ZN6librbd8locker_tD2Ev@Base 0.80
 _ZN6librbd8snap_setEPNS_8ImageCtxEPKc@Base 0.80
 _ZN6librbd8tmap_setERN8librados5IoCtxERKSs@Base 0.80
 _ZN6librbd9AioRemove14add_copyup_opsEv@Base 0.80
 _ZN6librbd9AioRemoveD0Ev@Base 0.80
 _ZN6librbd9AioRemoveD1Ev@Base 0.80
 _ZN6librbd9AioRemoveD2Ev@Base 0.80
 _ZN6librbd9C_AioRead6finishEi@Base 0.80
 _ZN6librbd9C_AioReadD0Ev@Base 0.80
 _ZN6librbd9C_AioReadD1Ev@Base 0.80
 _ZN6librbd9C_AioReadD2Ev@Base 0.80
 _ZN6librbd9C_Request6finishEi@Base 0.80
 _ZN6librbd9C_RequestD0Ev@Base 0.80
 _ZN6librbd9C_RequestD1Ev@Base 0.80
 _ZN6librbd9C_RequestD2Ev@Base 0.80
 _ZN6librbd9_snap_setEPNS_8ImageCtxEPKc@Base 0.80
 _ZN6librbd9aio_flushEPNS_8ImageCtxEPNS_13AioCompletionE@Base 0.80
 _ZN6librbd9aio_writeEPNS_8ImageCtxEyjPKcPNS_13AioCompletionE@Base 0.80
 _ZN6librbd9create_v1ERN8librados5IoCtxEPKcyyi@Base 0.80
 _ZN6librbd9create_v2ERN8librados5IoCtxEPKcyyiyyy@Base 0.80
 _ZN6librbd9snap_listEPNS_8ImageCtxERSt6vectorINS_11snap_info_tESaIS3_EE@Base 0.80
 _ZN7Context8completeEi@Base 0.80
 _ZN7LRUList6removeEP9LRUObject@Base 0.80
 _ZN7MPoolOp14decode_payloadEv@Base 0.80
 _ZN7MPoolOp14encode_payloadEy@Base 0.80
 _ZN7MPoolOpD0Ev@Base 0.80
 _ZN7MPoolOpD1Ev@Base 0.80
 _ZN7MPoolOpD2Ev@Base 0.80
 _ZN7MStatfs14decode_payloadEv@Base 0.80
 _ZN7MStatfs14encode_payloadEy@Base 0.80
 _ZN7MStatfsD0Ev@Base 0.80
 _ZN7MStatfsD1Ev@Base 0.80
 _ZN7MStatfsD2Ev@Base 0.80
 _ZN7Message13clear_buffersEv@Base 0.80
 _ZN7MessageC1Eiii@Base 0.80
 _ZN7MessageC2Eiii@Base 0.80
 _ZN7MessageD0Ev@Base 0.80
 _ZN7MessageD1Ev@Base 0.80
 _ZN7MessageD2Ev@Base 0.80
 _ZN7Striper14extent_to_fileEP11CephContextP16ceph_file_layoutyyyRSt6vectorISt4pairIyyESaIS6_EE@Base 0.80
 _ZN7Striper15file_to_extentsEP11CephContextPKcP16ceph_file_layoutyyyRSt3mapI8object_tSt6vectorI12ObjectExtentSaIS9_EESt4lessIS7_ESaISt4pairIKS7_SB_EEEy@Base 0.80
 _ZN7Striper15file_to_extentsEP11CephContextPKcP16ceph_file_layoutyyyRSt6vectorI12ObjectExtentSaIS7_EEy@Base 0.80
 _ZN7Striper17StripedReadResult15assemble_resultEP11CephContextRN4ceph6buffer4listEb@Base 0.80
 _ZN7Striper17StripedReadResult18add_partial_resultEP11CephContextRN4ceph6buffer4listERKSt6vectorISt4pairIyyESaIS9_EE@Base 0.80
 _ZN7Striper17StripedReadResult25add_partial_sparse_resultEP11CephContextRN4ceph6buffer4listERKSt3mapIyySt4lessIyESaISt4pairIKyyEEEyRKSt6vectorISA_IyyESaISI_EE@Base 0.80
 _ZN7Striper18assimilate_extentsERSt3mapI8object_tSt6vectorI12ObjectExtentSaIS3_EESt4lessIS1_ESaISt4pairIKS1_S5_EEERS5_@Base 0.80
 _ZN7Striper20object_truncate_sizeEP11CephContextP16ceph_file_layoutyy@Base 0.80
 _ZN8C_Gather10sub_finishEP7Contexti@Base 0.80
 _ZN8C_Gather11C_GatherSub6finishEi@Base 0.80
 _ZN8C_Gather11C_GatherSubD0Ev@Base 0.80
 _ZN8C_Gather11C_GatherSubD1Ev@Base 0.80
 _ZN8C_Gather11C_GatherSubD2Ev@Base 0.80
 _ZN8C_Gather6finishEi@Base 0.80
 _ZN8C_GatherD0Ev@Base 0.80
 _ZN8C_GatherD1Ev@Base 0.80
 _ZN8C_GatherD2Ev@Base 0.80
 _ZN8Finisher14FinisherThread5entryEv@Base 0.80
 _ZN8Finisher14FinisherThreadD0Ev@Base 0.80
 _ZN8Finisher14FinisherThreadD1Ev@Base 0.80
 _ZN8Finisher14FinisherThreadD2Ev@Base 0.80
 _ZN8FinisherD1Ev@Base 0.80
 _ZN8FinisherD2Ev@Base 0.80
 _ZN8MCommand14decode_payloadEv@Base 0.80
 _ZN8MCommand14encode_payloadEy@Base 0.80
 _ZN8MCommandD0Ev@Base 0.80
 _ZN8MCommandD1Ev@Base 0.80
 _ZN8MCommandD2Ev@Base 0.80
 _ZN8Objecter10_op_submitEPNS_2OpE@Base 0.80
 _ZN8Objecter11_linger_ackEPNS_8LingerOpEi@Base 0.80
 _ZN8Objecter11_list_replyEPNS_11ListContextEiP7Contextj@Base 0.80
 _ZN8Objecter11calc_targetEPNS_11op_target_tEb@Base 0.80
 _ZN8Objecter11create_poolERSsP7Contextyi@Base 0.80
 _ZN8Objecter11delete_poolExP7Context@Base 0.80
 _ZN8Objecter11dump_activeEv@Base 0.80
 _ZN8Objecter11get_sessionEi@Base 0.80
 _ZN8Objecter11init_lockedEv@Base 0.80
 _ZN8Objecter11linger_readERK8object_tRK16object_locator_tR15ObjectOperation8snapid_tRN4ceph6buffer4listEPSB_iP7ContextPy@Base 0.80
 _ZN8Objecter11op_target_tD1Ev@Base 0.80
 _ZN8Objecter11op_target_tD2Ev@Base 0.80
 _ZN8Objecter11send_lingerEPNS_8LingerOpE@Base 0.80
 _ZN8Objecter11throttle_opEPNS_2OpEi@Base 0.80
 _ZN8Objecter12C_Linger_Ack6finishEi@Base 0.80
 _ZN8Objecter12C_Linger_AckD0Ev@Base 0.80
 _ZN8Objecter12C_Linger_AckD1Ev@Base 0.80
 _ZN8Objecter12C_Linger_AckD2Ev@Base 0.80
 _ZN8Objecter12get_fs_statsER11ceph_statfsP7Context@Base 0.80
 _ZN8Objecter12list_objectsEPNS_11ListContextEP7Context@Base 0.80
 _ZN8Objecter13_send_commandEPNS_9CommandOpE@Base 0.80
 _ZN8Objecter13close_sessionEPNS_10OSDSessionE@Base 0.80
 _ZN8Objecter13init_unlockedEv@Base 0.80
 _ZN8Objecter13is_pg_changedEiRKSt6vectorIiSaIiEEiS4_b@Base 0.80
 _ZN8Objecter13kick_requestsEPNS_10OSDSessionE@Base 0.80
 _ZN8Objecter13linger_mutateERK8object_tRK16object_locator_tR15ObjectOperationRK11SnapContext7utime_tRN4ceph6buffer4listEiP7ContextSH_Py@Base 0.80
 _ZN8Objecter13scan_requestsEbbRSt3mapIyPNS_2OpESt4lessIyESaISt4pairIKyS2_EEERSt4listIPNS_8LingerOpESaISD_EERS0_IyPNS_9CommandOpES4_SaIS5_IS6_SI_EEE@Base 0.80
 _ZN8Objecter13schedule_tickEv@Base 0.80
 _ZN8Objecter13sg_read_truncERSt6vectorI12ObjectExtentSaIS1_EE8snapid_tPN4ceph6buffer4listEiyjP7Context@Base 0.80
 _ZN8Objecter14_linger_commitEPNS_8LingerOpEi@Base 0.80
 _ZN8Objecter14blacklist_selfEb@Base 0.80
 _ZN8Objecter14calc_op_budgetEPNS_2OpE@Base 0.80
 _ZN8Objecter14finish_pool_opEPNS_6PoolOpE@Base 0.80
 _ZN8Objecter14get_pool_statsERSt4listISsSaISsEEPSt3mapISs11pool_stat_tSt4lessISsESaISt4pairIKSsS5_EEEP7Context@Base 0.80
 _ZN8Objecter14handle_osd_mapEP7MOSDMap@Base 0.80
 _ZN8Objecter14pool_op_cancelEyi@Base 0.80
 _ZN8Objecter14pool_op_submitEPNS_6PoolOpE@Base 0.80
 _ZN8Objecter14reopen_sessionEPNS_10OSDSessionE@Base 0.80
 _ZN8Objecter14resend_mon_opsEv@Base 0.80
 _ZN8Objecter15C_Linger_Commit6finishEi@Base 0.80
 _ZN8Objecter15C_Linger_CommitD0Ev@Base 0.80
 _ZN8Objecter15C_Linger_CommitD1Ev@Base 0.80
 _ZN8Objecter15C_Linger_CommitD2Ev@Base 0.80
 _ZN8Objecter15C_Op_Map_Latest6finishEi@Base 0.80
 _ZN8Objecter15C_Op_Map_LatestD0Ev@Base 0.80
 _ZN8Objecter15C_Op_Map_LatestD1Ev@Base 0.80
 _ZN8Objecter15C_Op_Map_LatestD2Ev@Base 0.80
 _ZN8Objecter15_finish_commandEPNS_9CommandOpEiSs@Base 0.80
 _ZN8Objecter15_pool_op_submitEPNS_6PoolOpE@Base 0.80
 _ZN8Objecter15_sg_read_finishERSt6vectorI12ObjectExtentSaIS1_EERS0_IN4ceph6buffer4listESaIS7_EEPS7_P7Context@Base 0.80
 _ZN8Objecter15_submit_commandEPNS_9CommandOpEPy@Base 0.80
 _ZN8Objecter15fs_stats_submitEPNS_8StatfsOpE@Base 0.80
 _ZN8Objecter15ms_handle_resetEP10Connection@Base 0.80
 _ZN8Objecter15poolstat_submitEPNS_10PoolStatOpE@Base 0.80
 _ZN8Objecter15shutdown_lockedEv@Base 0.80
 _ZN8Objecter16RequestStateHook4callESsRSt3mapISsN5boost7variantISsbxdSt6vectorISsSaISsEENS2_6detail7variant5void_ES9_S9_S9_S9_S9_S9_S9_S9_S9_S9_S9_S9_S9_S9_EESt4lessISsESaISt4pairIKSsSA_EEESsRN4ceph6buffer4listE@Base 0.80
 _ZN8Objecter16RequestStateHookC1EPS_@Base 0.80
 _ZN8Objecter16RequestStateHookC2EPS_@Base 0.80
 _ZN8Objecter16RequestStateHookD0Ev@Base 0.80
 _ZN8Objecter16RequestStateHookD1Ev@Base 0.80
 _ZN8Objecter16RequestStateHookD2Ev@Base 0.80
 _ZN8Objecter16cancel_linger_opEPNS_2OpE@Base 0.80
 _ZN8Objecter16change_pool_auidExP7Contexty@Base 0.80
 _ZN8Objecter16create_pool_snapExRSsP7Context@Base 0.80
 _ZN8Objecter16delete_pool_snapExRSsP7Context@Base 0.80
 _ZN8Objecter16finish_statfs_opEPNS_8StatfsOpE@Base 0.80
 _ZN8Objecter16recalc_op_targetEPNS_2OpE@Base 0.80
 _ZN8Objecter16statfs_op_cancelEyi@Base 0.80
 _ZN8Objecter16wait_for_new_mapEP7Contextji@Base 0.80
 _ZN8Objecter16wait_for_osd_mapEv@Base 0.80
 _ZN8Objecter17check_op_pool_dneEPNS_2OpE@Base 0.80
 _ZN8Objecter17command_op_cancelEyi@Base 0.80
 _ZN8Objecter17list_objects_seekEPNS_11ListContextEj@Base 0.80
 _ZN8Objecter17maybe_request_mapEv@Base 0.80
 _ZN8Objecter17ms_handle_connectEP10Connection@Base 0.80
 _ZN8Objecter17shutdown_unlockedEv@Base 0.80
 _ZN8Objecter17unregister_lingerEy@Base 0.80
 _ZN8Objecter18_send_op_map_checkEPNS_2OpE@Base 0.80
 _ZN8Objecter18handle_conf_changeEPK11md_config_tRKSt3setISsSt4lessISsESaISsEE@Base 0.80
 _ZN8Objecter19C_Linger_Map_Latest6finishEi@Base 0.80
 _ZN8Objecter19C_Linger_Map_LatestD0Ev@Base 0.80
 _ZN8Objecter19C_Linger_Map_LatestD1Ev@Base 0.80
 _ZN8Objecter19C_Linger_Map_LatestD2Ev@Base 0.80
 _ZN8Objecter19_get_latest_versionEjjP7Context@Base 0.80
 _ZN8Objecter19finish_pool_stat_opEPNS_10PoolStatOpE@Base 0.80
 _ZN8Objecter19handle_osd_op_replyEP11MOSDOpReply@Base 0.80
 _ZN8Objecter19op_cancel_map_checkEPNS_2OpE@Base 0.80
 _ZN8Objecter19pool_stat_op_cancelEyi@Base 0.80
 _ZN8Objecter20C_Command_Map_Latest6finishEi@Base 0.80
 _ZN8Objecter20C_Command_Map_LatestD0Ev@Base 0.80
 _ZN8Objecter20C_Command_Map_LatestD1Ev@Base 0.80
 _ZN8Objecter20C_Command_Map_LatestD2Ev@Base 0.80
 _ZN8Objecter20handle_command_replyEP13MCommandReply@Base 0.80
 _ZN8Objecter20handle_pool_op_replyEP12MPoolOpReply@Base 0.80
 _ZN8Objecter21check_command_map_dneEPNS_9CommandOpE@Base 0.80
 _ZN8Objecter21check_linger_pool_dneEPNS_8LingerOpE@Base 0.80
 _ZN8Objecter21handle_fs_stats_replyEP12MStatfsReply@Base 0.80
 _ZN8Objecter21recalc_command_targetEPNS_9CommandOpE@Base 0.80
 _ZN8Objecter22_send_linger_map_checkEPNS_8LingerOpE@Base 0.80
 _ZN8Objecter22ms_handle_remote_resetEP10Connection@Base 0.80
 _ZN8Objecter22wait_for_latest_osdmapEP7Context@Base 0.80
 _ZN8Objecter23_send_command_map_checkEPNS_9CommandOpE@Base 0.80
 _ZN8Objecter23delete_selfmanaged_snapEx8snapid_tP7Context@Base 0.80
 _ZN8Objecter23linger_cancel_map_checkEPNS_8LingerOpE@Base 0.80
 _ZN8Objecter23recalc_linger_op_targetEPNS_8LingerOpE@Base 0.80
 _ZN8Objecter23target_should_be_pausedEPNS_11op_target_tE@Base 0.80
 _ZN8Objecter24command_cancel_map_checkEPNS_9CommandOpE@Base 0.80
 _ZN8Objecter24get_object_hash_positionExRKSsS1_@Base 0.80
 _ZN8Objecter25allocate_selfmanaged_snapExP8snapid_tP7Context@Base 0.80
 _ZN8Objecter27get_object_pg_hash_positionExRKSsS1_@Base 0.80
 _ZN8Objecter27handle_get_pool_stats_replyEP18MGetPoolStatsReply@Base 0.80
 _ZN8Objecter2OpC1ERK8object_tRK16object_locator_tRSt6vectorI5OSDOpSaIS8_EEiP7ContextSD_Py@Base 0.80
 _ZN8Objecter2OpC2ERK8object_tRK16object_locator_tRSt6vectorI5OSDOpSaIS8_EEiP7ContextSD_Py@Base 0.80
 _ZN8Objecter2OpD1Ev@Base 0.80
 _ZN8Objecter2OpD2Ev@Base 0.80
 _ZN8Objecter4tickEv@Base 0.80
 _ZN8Objecter6C_List6finishEi@Base 0.80
 _ZN8Objecter6C_ListD0Ev@Base 0.80
 _ZN8Objecter6C_ListD1Ev@Base 0.80
 _ZN8Objecter6C_ListD2Ev@Base 0.80
 _ZN8Objecter6C_Stat6finishEi@Base 0.80
 _ZN8Objecter6C_StatD0Ev@Base 0.80
 _ZN8Objecter6C_StatD1Ev@Base 0.80
 _ZN8Objecter6C_StatD2Ev@Base 0.80
 _ZN8Objecter6C_Tick6finishEi@Base 0.80
 _ZN8Objecter6C_TickD0Ev@Base 0.80
 _ZN8Objecter6C_TickD1Ev@Base 0.80
 _ZN8Objecter6C_TickD2Ev@Base 0.80
 _ZN8Objecter6removeERK8object_tRK16object_locator_tRK11SnapContext7utime_tiP7ContextSB_PyP15ObjectOperation@Base 0.80
 _ZN8Objecter7send_opEPNS_2OpE@Base 0.80
 _ZN8Objecter8C_SGRead6finishEi@Base 0.80
 _ZN8Objecter8C_SGReadD0Ev@Base 0.80
 _ZN8Objecter8C_SGReadD1Ev@Base 0.80
 _ZN8Objecter8C_SGReadD2Ev@Base 0.80
 _ZN8Objecter8LingerOpD0Ev@Base 0.80
 _ZN8Objecter8LingerOpD1Ev@Base 0.80
 _ZN8Objecter8LingerOpD2Ev@Base 0.80
 _ZN8Objecter8dispatchEP7Message@Base 0.80
 _ZN8Objecter9finish_opEPNS_2OpE@Base 0.80
 _ZN8Objecter9op_cancelEyi@Base 0.80
 _ZN8Objecter9op_submitEPNS_2OpE@Base 0.80
 _ZN8ObjecterD0Ev@Base 0.80
 _ZN8ObjecterD1Ev@Base 0.80
 _ZN8ObjecterD2Ev@Base 0.80
 _ZN8librados19ObjectReadOperationD0Ev@Base 0.80
 _ZN8librados19ObjectReadOperationD1Ev@Base 0.80
 _ZN8librados19ObjectReadOperationD2Ev@Base 0.80
 _ZN8librados20ObjectWriteOperationD0Ev@Base 0.80
 _ZN8librados20ObjectWriteOperationD1Ev@Base 0.80
 _ZN8librados20ObjectWriteOperationD2Ev@Base 0.80
 _ZN9Journaler10C_ProbeEnd6finishEi@Base 0.80
 _ZN9Journaler10C_ProbeEndD0Ev@Base 0.80
 _ZN9Journaler10C_ProbeEndD1Ev@Base 0.80
 _ZN9Journaler10C_ProbeEndD2Ev@Base 0.80
 _ZN9Journaler10C_ReadHead6finishEi@Base 0.80
 _ZN9Journaler10C_ReadHeadD0Ev@Base 0.80
 _ZN9Journaler10C_ReadHeadD1Ev@Base 0.80
 _ZN9Journaler10C_ReadHeadD2Ev@Base 0.80
 _ZN9Journaler10_prezeroedEiyy@Base 0.80
 _ZN9Journaler10set_layoutEP16ceph_file_layout@Base 0.80
 _ZN9Journaler10write_headEP7Context@Base 0.80
 _ZN9Journaler11C_RetryRead6finishEi@Base 0.80
 _ZN9Journaler11C_RetryReadD0Ev@Base 0.80
 _ZN9Journaler11C_RetryReadD1Ev@Base 0.80
 _ZN9Journaler11C_RetryReadD2Ev@Base 0.80
 _ZN9Journaler11C_WriteHead6finishEi@Base 0.80
 _ZN9Journaler11C_WriteHeadD0Ev@Base 0.80
 _ZN9Journaler11C_WriteHeadD1Ev@Base 0.80
 _ZN9Journaler11C_WriteHeadD2Ev@Base 0.80
 _ZN9Journaler11_issue_readEy@Base 0.80
 _ZN9Journaler11is_readableEv@Base 0.80
 _ZN9Journaler11reread_headEP7Context@Base 0.80
 _ZN9Journaler12C_DelayFlush6finishEi@Base 0.80
 _ZN9Journaler12C_DelayFlushD0Ev@Base 0.80
 _ZN9Journaler12C_DelayFlushD1Ev@Base 0.80
 _ZN9Journaler12C_DelayFlushD2Ev@Base 0.80
 _ZN9Journaler12C_RereadHead6finishEi@Base 0.80
 _ZN9Journaler12C_RereadHeadD0Ev@Base 0.80
 _ZN9Journaler12C_RereadHeadD1Ev@Base 0.80
 _ZN9Journaler12C_RereadHeadD2Ev@Base 0.80
 _ZN9Journaler12_finish_readEiyRN4ceph6buffer4listE@Base 0.80
 _ZN9Journaler12_is_readableEv@Base 0.80
 _ZN9Journaler12_trim_finishEiy@Base 0.80
 _ZN9Journaler12append_entryERN4ceph6buffer4listE@Base 0.80
 _ZN9Journaler12set_readonlyEv@Base 0.80
 _ZN9Journaler13_finish_flushEiy7utime_t@Base 0.80
 _ZN9Journaler13set_writeableEv@Base 0.80
 _ZN9Journaler14_issue_prezeroEv@Base 0.80
 _ZN9Journaler14try_read_entryERN4ceph6buffer4listE@Base 0.80
 _ZN9Journaler14wait_for_flushEP7Context@Base 0.80
 _ZN9Journaler15_finish_reprobeEiyP7Context@Base 0.80
 _ZN9Journaler17C_RereadHeadProbe6finishEi@Base 0.80
 _ZN9Journaler17C_RereadHeadProbeD0Ev@Base 0.80
 _ZN9Journaler17C_RereadHeadProbeD1Ev@Base 0.80
 _ZN9Journaler17C_RereadHeadProbeD2Ev@Base 0.80
 _ZN9Journaler17_finish_probe_endEiy@Base 0.80
 _ZN9Journaler17_finish_read_headEiRN4ceph6buffer4listE@Base 0.80
 _ZN9Journaler17wait_for_readableEP7Context@Base 0.80
 _ZN9Journaler18_finish_write_headEiRNS_6HeaderEP7Context@Base 0.80
 _ZN9Journaler18handle_write_errorEi@Base 0.80
 _ZN9Journaler19_finish_reread_headEiRN4ceph6buffer4listEP7Context@Base 0.80
 _ZN9Journaler20_assimilate_prefetchEv@Base 0.80
 _ZN9Journaler21reread_head_and_probeEP7Context@Base 0.80
 _ZN9Journaler29_finish_reread_head_and_probeEiP7Context@Base 0.80
 _ZN9Journaler4trimEv@Base 0.80
 _ZN9Journaler5flushEP7Context@Base 0.80
 _ZN9Journaler5probeEP7ContextPy@Base 0.80
 _ZN9Journaler6C_Read6finishEi@Base 0.80
 _ZN9Journaler6C_ReadD0Ev@Base 0.80
 _ZN9Journaler6C_ReadD1Ev@Base 0.80
 _ZN9Journaler6C_ReadD2Ev@Base 0.80
 _ZN9Journaler6C_Trim6finishEi@Base 0.80
 _ZN9Journaler6C_TrimD0Ev@Base 0.80
 _ZN9Journaler6C_TrimD1Ev@Base 0.80
 _ZN9Journaler6C_TrimD2Ev@Base 0.80
 _ZN9Journaler6createEP16ceph_file_layout@Base 0.80
 _ZN9Journaler7C_Flush6finishEi@Base 0.80
 _ZN9Journaler7C_FlushD0Ev@Base 0.80
 _ZN9Journaler7C_FlushD1Ev@Base 0.80
 _ZN9Journaler7C_FlushD2Ev@Base 0.80
 _ZN9Journaler7recoverEP7Context@Base 0.80
 _ZN9Journaler7reprobeEP7Context@Base 0.80
 _ZN9Journaler9C_ReProbe6finishEi@Base 0.80
 _ZN9Journaler9C_ReProbeD0Ev@Base 0.80
 _ZN9Journaler9C_ReProbeD1Ev@Base 0.80
 _ZN9Journaler9C_ReProbeD2Ev@Base 0.80
 _ZN9Journaler9_do_flushEj@Base 0.80
 _ZN9Journaler9_prefetchEv@Base 0.80
 _ZN9Journaler9read_headEP7ContextPN4ceph6buffer4listE@Base 0.80
 _ZN9LRUObject9lru_unpinEv@Base 0.80
 _ZN9MonClient10renew_subsEv@Base 0.80
 _ZN9MonClient8sub_wantESsyj@Base 0.80
 _ZN9hobject_tC1ERKS_@Base 0.80
 _ZN9hobject_tC2ERKS_@Base 0.80
 _ZN9hobject_tD1Ev@Base 0.80
 _ZN9hobject_tD2Ev@Base 0.80
 _ZNK11MMonCommand13get_type_nameEv@Base 0.80
 _ZNK11MMonCommand5printERSo@Base 0.80
 _ZNK12ObjectCacher12verify_statsEv@Base 0.80
 _ZNK13MGetPoolStats13get_type_nameEv@Base 0.80
 _ZNK13MGetPoolStats5printERSo@Base 0.80
 _ZNK16cls_lock_lock_op4dumpEPN4ceph9FormatterE@Base 0.80
 _ZNK17cls_lock_break_op4dumpEPN4ceph9FormatterE@Base 0.80
 _ZNK18cls_lock_unlock_op4dumpEPN4ceph9FormatterE@Base 0.80
 _ZNK19PaxosServiceMessage13get_type_nameEv@Base 0.80
 _ZNK20cls_lock_get_info_op4dumpEPN4ceph9FormatterE@Base 0.80
 _ZNK23cls_lock_get_info_reply4dumpEPN4ceph9FormatterE@Base 0.80
 _ZNK25cls_lock_list_locks_reply4dumpEPN4ceph9FormatterE@Base 0.80
 _ZNK4ceph6buffer15malformed_input4whatEv@Base 0.80
 _ZNK4ceph6buffer5error4whatEv@Base 0.80
 _ZNK5MPing13get_type_nameEv@Base 0.80
 _ZNK5rados3cls4lock11locker_id_t4dumpEPN4ceph9FormatterE@Base 0.80
 _ZNK5rados3cls4lock13locker_info_t4dumpEPN4ceph9FormatterE@Base 0.80
 _ZNK6MOSDOp13get_type_nameEv@Base 0.80
 _ZNK6MOSDOp5printERSo@Base 0.80
 _ZNK6RWLock6unlockEv@Base 0.80
 _ZNK6RWLock8get_readEv@Base 0.80
 _ZNK6librbd5Image15get_stripe_unitEv@Base 0.80
 _ZNK6librbd5Image16get_stripe_countEv@Base 0.80
 _ZNK6librbd8ImageCtx11get_snap_idESs@Base 0.80
 _ZNK6librbd8ImageCtx12get_featuresEyPy@Base 0.80
 _ZNK6librbd8ImageCtx13get_snap_nameE8snapid_tPSs@Base 0.80
 _ZNK6librbd8ImageCtx14get_image_sizeEy@Base 0.80
 _ZNK6librbd8ImageCtx15get_num_objectsEv@Base 0.80
 _ZNK6librbd8ImageCtx15get_object_nameEy@Base 0.80
 _ZNK6librbd8ImageCtx15get_object_sizeEv@Base 0.80
 _ZNK6librbd8ImageCtx15get_stripe_unitEv@Base 0.80
 _ZNK6librbd8ImageCtx16get_current_sizeEv@Base 0.80
 _ZNK6librbd8ImageCtx16get_stripe_countEv@Base 0.80
 _ZNK6librbd8ImageCtx17get_stripe_periodEv@Base 0.80
 _ZNK6librbd8ImageCtx17is_snap_protectedESsPb@Base 0.80
 _ZNK6librbd8ImageCtx18get_parent_overlapEyPy@Base 0.80
 _ZNK6librbd8ImageCtx18get_parent_pool_idEy@Base 0.80
 _ZNK6librbd8ImageCtx18get_parent_snap_idEy@Base 0.80
 _ZNK6librbd8ImageCtx19get_parent_image_idEy@Base 0.80
 _ZNK6librbd8ImageCtx19is_snap_unprotectedESsPb@Base 0.80
 _ZNK7MOSDMap8get_lastEv@Base 0.80
 _ZNK7MPoolOp13get_type_nameEv@Base 0.80
 _ZNK7MPoolOp5printERSo@Base 0.80
 _ZNK7MStatfs13get_type_nameEv@Base 0.80
 _ZNK7MStatfs5printERSo@Base 0.80
 _ZNK7Message15get_source_instEv@Base 0.80
 _ZNK7Message5printERSo@Base 0.80
 _ZNK7Message8get_costEv@Base 0.80
 _ZNK7utime_t9localtimeERSo@Base 0.80
 _ZNK8MCommand13get_type_nameEv@Base 0.80
 _ZNK8MCommand5printERSo@Base 0.80
 _ZNK8Objecter11op_target_t4dumpEPN4ceph9FormatterE@Base 0.80
 _ZNK8Objecter13dump_pool_opsEPN4ceph9FormatterE@Base 0.80
 _ZNK8Objecter13dump_requestsEPN4ceph9FormatterE@Base 0.80
 _ZNK8Objecter15dump_linger_opsEPN4ceph9FormatterE@Base 0.80
 _ZNK8Objecter15dump_statfs_opsEPN4ceph9FormatterE@Base 0.80
 _ZNK8Objecter16dump_command_opsEPN4ceph9FormatterE@Base 0.80
 _ZNK8Objecter16osdmap_full_flagEv@Base 0.80
 _ZNK8Objecter18dump_pool_stat_opsEPN4ceph9FormatterE@Base 0.80
 _ZNK8Objecter21get_tracked_conf_keysEv@Base 0.80
 _ZNK8Objecter8dump_opsEPN4ceph9FormatterE@Base 0.80
 _ZNKSt5ctypeIcE8do_widenEc@Base 0.80
 _ZNKSt8_Rb_treeISsSt4pairIKSs23ceph_mon_subscribe_itemESt10_Select1stIS3_ESt4lessISsESaIS3_EE4findERS1_@Base 0.80
 _ZNKSt8_Rb_treeISsSt4pairIKSsN6librbd8SnapInfoEESt10_Select1stIS4_ESt4lessISsESaIS4_EE4findERS1_@Base 0.80
 _ZNKSt8_Rb_treeIjSt4pairIKjN4ceph6buffer4listEESt10_Select1stIS5_ESt4lessIjESaIS5_EE4findERS1_@Base 0.80
 _ZNKSt8_Rb_treeIxSt4pairIKx9pg_pool_tESt10_Select1stIS3_ESt4lessIxESaIS3_EE4findERS1_@Base 0.80
 _ZNKSt8_Rb_treeIxSt4pairIKxPN12ObjectCacher10BufferHeadEESt10_Select1stIS5_ESt4lessIxESaIS5_EE4findERS1_@Base 0.80
 _ZNKSt8_Rb_treeIySt4pairIKyPN8Objecter2OpEESt10_Select1stIS5_ESt4lessIyESaIS5_EE4findERS1_@Base 0.80
 _ZNSt10_List_baseIN4ceph6buffer3ptrESaIS2_EE8_M_clearEv@Base 0.80
 _ZNSt10_List_baseIN6librbd8locker_tESaIS1_EE8_M_clearEv@Base 0.80
 _ZNSt10_List_baseISsSaISsEE8_M_clearEv@Base 0.80
 _ZNSt10_List_baseISt4pairI8object_tSsESaIS2_EE8_M_clearEv@Base 0.80
 _ZNSt11_Deque_baseIPN6librbd15LibrbdWriteback14write_result_dESaIS3_EE17_M_initialize_mapEj@Base 0.80
 _ZNSt11_Deque_baseIPN6librbd15LibrbdWriteback14write_result_dESaIS3_EED1Ev@Base 0.80
 _ZNSt11_Deque_baseIPN6librbd15LibrbdWriteback14write_result_dESaIS3_EED2Ev@Base 0.80
 _ZNSt12_Destroy_auxILb0EE9__destroyIPN6librbd11parent_infoEEEvT_S5_@Base 0.80
 _ZNSt12_Destroy_auxILb0EE9__destroyIPN6librbd11snap_info_tEEEvT_S5_@Base 0.80
 _ZNSt12_Destroy_auxILb0EE9__destroyIPSsEEvT_S3_@Base 0.80
 _ZNSt15basic_stringbufIcSt11char_traitsIcESaIcEED0Ev@Base 0.80
 _ZNSt15basic_stringbufIcSt11char_traitsIcESaIcEED1Ev@Base 0.80
 _ZNSt15basic_stringbufIcSt11char_traitsIcESaIcEED2Ev@Base 0.80
 _ZNSt20__uninitialized_copyILb0EE13__uninit_copyIP12ObjectExtentS3_EET0_T_S5_S4_@Base 0.80
 _ZNSt20__uninitialized_copyILb0EE13__uninit_copyIP5OSDOpS3_EET0_T_S5_S4_@Base 0.80
 _ZNSt20__uninitialized_copyILb0EE13__uninit_copyIPNSt3tr113unordered_mapI9sobject_tPN12ObjectCacher6ObjectENS2_4hashIS4_EESt8equal_toIS4_ESaISt4pairIKS4_S7_EEEESH_EET0_T_SJ_SI_@Base 0.80
 _ZNSt20__uninitialized_copyILb0EE13__uninit_copyIPSsS2_EET0_T_S4_S3_@Base 0.80
 _ZNSt22__uninitialized_fill_nILb0EE15__uninit_fill_nIP5OSDOpjS2_EEvT_T0_RKT1_@Base 0.80
 _ZNSt3mapI8object_tySt4lessIS0_ESaISt4pairIKS0_yEEEixERS4_@Base 0.80
 _ZNSt3mapIN5rados3cls4lock11locker_id_tENS2_13locker_info_tESt4lessIS3_ESaISt4pairIKS3_S4_EEEixERS8_@Base 0.80
 _ZNSt3mapISs23ceph_mon_subscribe_itemSt4lessISsESaISt4pairIKSsS0_EEEixERS4_@Base 0.80
 _ZNSt3mapIjN4ceph6buffer4listESt4lessIjESaISt4pairIKjS2_EEEixERS6_@Base 0.80
 _ZNSt3mapIjSt4listISt4pairIP7ContextiESaIS4_EESt4lessIjESaIS1_IKjS6_EEEixERS9_@Base 0.80
 _ZNSt3mapIxPN12ObjectCacher10BufferHeadESt4lessIxESaISt4pairIKxS2_EEEixERS6_@Base 0.80
 _ZNSt3mapIxSt4listIP7ContextSaIS2_EESt4lessIxESaISt4pairIKxS4_EEEixERS8_@Base 0.80
 _ZNSt3mapIyN4ceph6buffer4listESt4lessIyESaISt4pairIKyS2_EEEixERS6_@Base 0.80
 _ZNSt3mapIyPN8Objecter2OpESt4lessIyESaISt4pairIKyS2_EEEixERS6_@Base 0.80
 _ZNSt3mapIySt4listIP7ContextSaIS2_EESt4lessIyESaISt4pairIKyS4_EEEixERS8_@Base 0.80
 _ZNSt3mapIyySt4lessIyESaISt4pairIKyyEEEixERS3_@Base 0.80
 _ZNSt3tr110_HashtableI9sobject_tSt4pairIKS1_PN12ObjectCacher6ObjectEESaIS7_ESt10_Select1stIS7_ESt8equal_toIS1_ENS_4hashIS1_EENS_8__detail18_Mod_range_hashingENSF_20_Default_ranged_hashENSF_20_Prime_rehash_policyELb0ELb0ELb1EE16_M_insert_bucketERKS7_jj@Base 0.80
 _ZNSt3tr110_HashtableI9sobject_tSt4pairIKS1_PN12ObjectCacher6ObjectEESaIS7_ESt10_Select1stIS7_ESt8equal_toIS1_ENS_4hashIS1_EENS_8__detail18_Mod_range_hashingENSF_20_Default_ranged_hashENSF_20_Prime_rehash_policyELb0ELb0ELb1EE5eraseERS3_@Base 0.80
 _ZNSt3tr110_HashtableI9sobject_tSt4pairIKS1_PN12ObjectCacher6ObjectEESaIS7_ESt10_Select1stIS7_ESt8equal_toIS1_ENS_4hashIS1_EENS_8__detail18_Mod_range_hashingENSF_20_Default_ranged_hashENSF_20_Prime_rehash_policyELb0ELb0ELb1EE9_M_rehashEj@Base 0.80
 _ZNSt3tr110_HashtableI9sobject_tSt4pairIKS1_PN12ObjectCacher6ObjectEESaIS7_ESt10_Select1stIS7_ESt8equal_toIS1_ENS_4hashIS1_EENS_8__detail18_Mod_range_hashingENSF_20_Default_ranged_hashENSF_20_Prime_rehash_policyELb0ELb0ELb1EEC1ERKSJ_@Base 0.80
 _ZNSt3tr110_HashtableI9sobject_tSt4pairIKS1_PN12ObjectCacher6ObjectEESaIS7_ESt10_Select1stIS7_ESt8equal_toIS1_ENS_4hashIS1_EENS_8__detail18_Mod_range_hashingENSF_20_Default_ranged_hashENSF_20_Prime_rehash_policyELb0ELb0ELb1EEC2ERKSJ_@Base 0.80
 _ZNSt3tr110_HashtableI9sobject_tSt4pairIKS1_PN12ObjectCacher6ObjectEESaIS7_ESt10_Select1stIS7_ESt8equal_toIS1_ENS_4hashIS1_EENS_8__detail18_Mod_range_hashingENSF_20_Default_ranged_hashENSF_20_Prime_rehash_policyELb0ELb0ELb1EED1Ev@Base 0.80
 _ZNSt3tr110_HashtableI9sobject_tSt4pairIKS1_PN12ObjectCacher6ObjectEESaIS7_ESt10_Select1stIS7_ESt8equal_toIS1_ENS_4hashIS1_EENS_8__detail18_Mod_range_hashingENSF_20_Default_ranged_hashENSF_20_Prime_rehash_policyELb0ELb0ELb1EED2Ev@Base 0.80
 _ZNSt3tr110_HashtableI9sobject_tSt4pairIKS1_PN12ObjectCacher6ObjectEESaIS7_ESt10_Select1stIS7_ESt8equal_toIS1_ENS_4hashIS1_EENS_8__detail18_Mod_range_hashingENSF_20_Default_ranged_hashENSF_20_Prime_rehash_policyELb0ELb0ELb1EEaSERKSJ_@Base 0.80
 _ZNSt3tr110_HashtableISsSt4pairIKSsSt5queueIPN6librbd15LibrbdWriteback14write_result_dESt5dequeIS7_SaIS7_EEEESaISC_ESt10_Select1stISC_ESt8equal_toISsENS_4hashISsEENS_8__detail18_Mod_range_hashingENSK_20_Default_ranged_hashENSK_20_Prime_rehash_policyELb0ELb0ELb1EE16_M_insert_bucketERKSC_jj@Base 0.80
 _ZNSt3tr110_HashtableISsSt4pairIKSsSt5queueIPN6librbd15LibrbdWriteback14write_result_dESt5dequeIS7_SaIS7_EEEESaISC_ESt10_Select1stISC_ESt8equal_toISsENS_4hashISsEENS_8__detail18_Mod_range_hashingENSK_20_Default_ranged_hashENSK_20_Prime_rehash_policyELb0ELb0ELb1EE5eraseERS2_@Base 0.80
 _ZNSt3tr110_HashtableISsSt4pairIKSsSt5queueIPN6librbd15LibrbdWriteback14write_result_dESt5dequeIS7_SaIS7_EEEESaISC_ESt10_Select1stISC_ESt8equal_toISsENS_4hashISsEENS_8__detail18_Mod_range_hashingENSK_20_Default_ranged_hashENSK_20_Prime_rehash_policyELb0ELb0ELb1EE9_M_rehashEj@Base 0.80
 _ZNSt3tr110_HashtableISsSt4pairIKSsSt5queueIPN6librbd15LibrbdWriteback14write_result_dESt5dequeIS7_SaIS7_EEEESaISC_ESt10_Select1stISC_ESt8equal_toISsENS_4hashISsEENS_8__detail18_Mod_range_hashingENSK_20_Default_ranged_hashENSK_20_Prime_rehash_policyELb0ELb0ELb1EED1Ev@Base 0.80
 _ZNSt3tr110_HashtableISsSt4pairIKSsSt5queueIPN6librbd15LibrbdWriteback14write_result_dESt5dequeIS7_SaIS7_EEEESaISC_ESt10_Select1stISC_ESt8equal_toISsENS_4hashISsEENS_8__detail18_Mod_range_hashingENSK_20_Default_ranged_hashENSK_20_Prime_rehash_policyELb0ELb0ELb1EED2Ev@Base 0.80
 _ZNSt3tr18__detail9_Map_baseI9sobject_tSt4pairIKS2_PN12ObjectCacher6ObjectEESt10_Select1stIS8_ELb1ENS_10_HashtableIS2_S8_SaIS8_ESA_St8equal_toIS2_ENS_4hashIS2_EENS0_18_Mod_range_hashingENS0_20_Default_ranged_hashENS0_20_Prime_rehash_policyELb0ELb0ELb1EEEEixERS4_@Base 0.80
 _ZNSt3tr18__detail9_Map_baseISsSt4pairIKSsSt5queueIPN6librbd15LibrbdWriteback14write_result_dESt5dequeIS8_SaIS8_EEEESt10_Select1stISD_ELb1ENS_10_HashtableISsSD_SaISD_ESF_St8equal_toISsENS_4hashISsEENS0_18_Mod_range_hashingENS0_20_Default_ranged_hashENS0_20_Prime_rehash_policyELb0ELb0ELb1EEEEixERS3_@Base 0.80
 _ZNSt4listIN4ceph6buffer3ptrESaIS2_EEaSERKS4_@Base 0.80
 _ZNSt4listISsSaISsEEaSERKS1_@Base 0.80
 _ZNSt4listISt4pairI8object_tSsESaIS2_EE5mergeERS4_@Base 0.80
 _ZNSt4pairI8object_tSsED1Ev@Base 0.80
 _ZNSt4pairI8object_tSsED2Ev@Base 0.80
 _ZNSt4pairIK8object_tSt6vectorI12ObjectExtentSaIS3_EEED1Ev@Base 0.80
 _ZNSt4pairIK8object_tSt6vectorI12ObjectExtentSaIS3_EEED2Ev@Base 0.80
 _ZNSt4pairIKN5rados3cls4lock11locker_id_tENS2_13locker_info_tEED1Ev@Base 0.80
 _ZNSt4pairIKN5rados3cls4lock11locker_id_tENS2_13locker_info_tEED2Ev@Base 0.80
 _ZNSt4pairIKSsN6librbd8SnapInfoEED1Ev@Base 0.80
 _ZNSt4pairIKSsN6librbd8SnapInfoEED2Ev@Base 0.80
 _ZNSt4pairIKSsSsED1Ev@Base 0.80
 _ZNSt4pairIKSsSsED2Ev@Base 0.80
 _ZNSt4pairIKSsSt5queueIPN6librbd15LibrbdWriteback14write_result_dESt5dequeIS5_SaIS5_EEEED1Ev@Base 0.80
 _ZNSt4pairIKSsSt5queueIPN6librbd15LibrbdWriteback14write_result_dESt5dequeIS5_SaIS5_EEEED2Ev@Base 0.80
 _ZNSt4pairISsN6librbd8SnapInfoEED1Ev@Base 0.80
 _ZNSt4pairISsN6librbd8SnapInfoEED2Ev@Base 0.80
 _ZNSt4pairISsSsED1Ev@Base 0.80
 _ZNSt4pairISsSsED2Ev@Base 0.80
 _ZNSt5dequeIPN6librbd15LibrbdWriteback14write_result_dESaIS3_EE16_M_push_back_auxERKS3_@Base 0.80
 _ZNSt5dequeIPN6librbd15LibrbdWriteback14write_result_dESaIS3_EEC1ERKS5_@Base 0.80
 _ZNSt5dequeIPN6librbd15LibrbdWriteback14write_result_dESaIS3_EEC2ERKS5_@Base 0.80
 _ZNSt6vectorI12ObjectExtentSaIS0_EE13_M_insert_auxEN9__gnu_cxx17__normal_iteratorIPS0_S2_EERKS0_@Base 0.80
 _ZNSt6vectorI12ObjectExtentSaIS0_EE14_M_fill_insertEN9__gnu_cxx17__normal_iteratorIPS0_S2_EEjRKS0_@Base 0.80
 _ZNSt6vectorI12ObjectExtentSaIS0_EED1Ev@Base 0.80
 _ZNSt6vectorI12ObjectExtentSaIS0_EED2Ev@Base 0.80
 _ZNSt6vectorI5OSDOpSaIS0_EE14_M_fill_insertEN9__gnu_cxx17__normal_iteratorIPS0_S2_EEjRKS0_@Base 0.80
 _ZNSt6vectorI5OSDOpSaIS0_EE6resizeEjS0_@Base 0.80
 _ZNSt6vectorI5OSDOpSaIS0_EED1Ev@Base 0.80
 _ZNSt6vectorI5OSDOpSaIS0_EED2Ev@Base 0.80
 _ZNSt6vectorI5OSDOpSaIS0_EEaSERKS2_@Base 0.80
 _ZNSt6vectorI8snapid_tSaIS0_EE14_M_fill_insertEN9__gnu_cxx17__normal_iteratorIPS0_S2_EEjRKS0_@Base 0.80
 _ZNSt6vectorI8snapid_tSaIS0_EEaSERKS2_@Base 0.80
 _ZNSt6vectorIN4ceph6buffer4listESaIS2_EED1Ev@Base 0.80
 _ZNSt6vectorIN4ceph6buffer4listESaIS2_EED2Ev@Base 0.80
 _ZNSt6vectorIN6librbd11parent_infoESaIS1_EE14_M_fill_insertEN9__gnu_cxx17__normal_iteratorIPS1_S3_EEjRKS1_@Base 0.80
 _ZNSt6vectorIN6librbd11snap_info_tESaIS1_EE13_M_insert_auxEN9__gnu_cxx17__normal_iteratorIPS1_S3_EERKS1_@Base 0.80
 _ZNSt6vectorIN8librados12clone_info_tESaIS1_EED1Ev@Base 0.80
 _ZNSt6vectorIN8librados12clone_info_tESaIS1_EED2Ev@Base 0.80
 _ZNSt6vectorINSt3tr113unordered_mapI9sobject_tPN12ObjectCacher6ObjectENS0_4hashIS2_EESt8equal_toIS2_ESaISt4pairIKS2_S5_EEEESaISE_EE14_M_fill_insertEN9__gnu_cxx17__normal_iteratorIPSE_SG_EEjRKSE_@Base 0.80
 _ZNSt6vectorINSt3tr113unordered_mapI9sobject_tPN12ObjectCacher6ObjectENS0_4hashIS2_EESt8equal_toIS2_ESaISt4pairIKS2_S5_EEEESaISE_EED1Ev@Base 0.80
 _ZNSt6vectorINSt3tr113unordered_mapI9sobject_tPN12ObjectCacher6ObjectENS0_4hashIS2_EESt8equal_toIS2_ESaISt4pairIKS2_S5_EEEESaISE_EED2Ev@Base 0.80
 _ZNSt6vectorIP7ContextSaIS1_EE13_M_insert_auxEN9__gnu_cxx17__normal_iteratorIPS1_S3_EERKS1_@Base 0.80
 _ZNSt6vectorIP7ContextSaIS1_EE14_M_fill_insertEN9__gnu_cxx17__normal_iteratorIPS1_S3_EEjRKS1_@Base 0.80
 _ZNSt6vectorIPN4ceph6buffer4listESaIS3_EE14_M_fill_insertEN9__gnu_cxx17__normal_iteratorIPS3_S5_EEjRKS3_@Base 0.80
 _ZNSt6vectorIPiSaIS0_EE14_M_fill_insertEN9__gnu_cxx17__normal_iteratorIPS0_S2_EEjRKS0_@Base 0.80
 _ZNSt6vectorISsSaISsEE13_M_insert_auxEN9__gnu_cxx17__normal_iteratorIPSsS1_EERKSs@Base 0.80
 _ZNSt6vectorISsSaISsEE14_M_fill_insertEN9__gnu_cxx17__normal_iteratorIPSsS1_EEjRKSs@Base 0.80
 _ZNSt6vectorISsSaISsEED1Ev@Base 0.80
 _ZNSt6vectorISsSaISsEED2Ev@Base 0.80
 _ZNSt6vectorISsSaISsEEaSERKS1_@Base 0.80
 _ZNSt6vectorISt4pairIyyESaIS1_EE13_M_insert_auxEN9__gnu_cxx17__normal_iteratorIPS1_S3_EERKS1_@Base 0.80
 _ZNSt6vectorISt4pairIyyESaIS1_EE7reserveEj@Base 0.80
 _ZNSt6vectorISt4pairIyyESaIS1_EEaSERKS3_@Base 0.80
 _ZNSt6vectorIhSaIhEE14_M_fill_insertEN9__gnu_cxx17__normal_iteratorIPhS1_EEjRKh@Base 0.80
 _ZNSt6vectorIiSaIiEEaSERKS1_@Base 0.80
 _ZNSt6vectorIySaIyEE13_M_insert_auxEN9__gnu_cxx17__normal_iteratorIPyS1_EERKy@Base 0.80
 _ZNSt6vectorIySaIyEE14_M_fill_insertEN9__gnu_cxx17__normal_iteratorIPyS1_EEjRKy@Base 0.80
 _ZNSt8_Rb_treeI13entity_addr_tSt4pairIKS0_7utime_tESt10_Select1stIS4_ESt4lessIS0_ESaIS4_EE8_M_eraseEPSt13_Rb_tree_nodeIS4_E@Base 0.80
 _ZNSt8_Rb_treeI4pg_tSt4pairIKS0_St6vectorIiSaIiEEESt10_Select1stIS6_ESt4lessIS0_ESaIS6_EE8_M_eraseEPSt13_Rb_tree_nodeIS6_E@Base 0.80
 _ZNSt8_Rb_treeI4pg_tSt4pairIKS0_iESt10_Select1stIS3_ESt4lessIS0_ESaIS3_EE8_M_eraseEPSt13_Rb_tree_nodeIS3_E@Base 0.80
 _ZNSt8_Rb_treeI8object_tS0_St9_IdentityIS0_ESt4lessIS0_ESaIS0_EE11equal_rangeERKS0_@Base 0.80
 _ZNSt8_Rb_treeI8object_tS0_St9_IdentityIS0_ESt4lessIS0_ESaIS0_EE16_M_insert_uniqueERKS0_@Base 0.80
 _ZNSt8_Rb_treeI8object_tS0_St9_IdentityIS0_ESt4lessIS0_ESaIS0_EE5eraseERKS0_@Base 0.80
 _ZNSt8_Rb_treeI8object_tS0_St9_IdentityIS0_ESt4lessIS0_ESaIS0_EE8_M_eraseEPSt13_Rb_tree_nodeIS0_E@Base 0.80
 _ZNSt8_Rb_treeI8object_tSt4pairIKS0_PN4ceph6buffer4listEESt10_Select1stIS7_ESt4lessIS0_ESaIS7_EE8_M_eraseEPSt13_Rb_tree_nodeIS7_E@Base 0.80
 _ZNSt8_Rb_treeI8object_tSt4pairIKS0_St6vectorI12ObjectExtentSaIS4_EEESt10_Select1stIS7_ESt4lessIS0_ESaIS7_EE10_M_insert_EPSt18_Rb_tree_node_baseSF_RKS7_@Base 0.80
 _ZNSt8_Rb_treeI8object_tSt4pairIKS0_St6vectorI12ObjectExtentSaIS4_EEESt10_Select1stIS7_ESt4lessIS0_ESaIS7_EE17_M_insert_unique_ESt23_Rb_tree_const_iteratorIS7_ERKS7_@Base 0.80
 _ZNSt8_Rb_treeI8object_tSt4pairIKS0_St6vectorI12ObjectExtentSaIS4_EEESt10_Select1stIS7_ESt4lessIS0_ESaIS7_EE24_M_get_insert_unique_posERS2_@Base 0.80
 _ZNSt8_Rb_treeI8object_tSt4pairIKS0_St6vectorI12ObjectExtentSaIS4_EEESt10_Select1stIS7_ESt4lessIS0_ESaIS7_EE8_M_eraseEPSt13_Rb_tree_nodeIS7_E@Base 0.80
 _ZNSt8_Rb_treeI8object_tSt4pairIKS0_yESt10_Select1stIS3_ESt4lessIS0_ESaIS3_EE17_M_insert_unique_ESt23_Rb_tree_const_iteratorIS3_ERKS3_@Base 0.80
 _ZNSt8_Rb_treeI8object_tSt4pairIKS0_yESt10_Select1stIS3_ESt4lessIS0_ESaIS3_EE24_M_get_insert_unique_posERS2_@Base 0.80
 _ZNSt8_Rb_treeI8object_tSt4pairIKS0_yESt10_Select1stIS3_ESt4lessIS0_ESaIS3_EE8_M_eraseEPSt13_Rb_tree_nodeIS3_E@Base 0.80
 _ZNSt8_Rb_treeI8snapid_tSt4pairIKS0_16pool_snap_info_tESt10_Select1stIS4_ESt4lessIS0_ESaIS4_EE8_M_eraseEPSt13_Rb_tree_nodeIS4_E@Base 0.80
 _ZNSt8_Rb_treeI8snapid_tSt4pairIKS0_S0_ESt10_Select1stIS3_ESt4lessIS0_ESaIS3_EE8_M_eraseEPSt13_Rb_tree_nodeIS3_E@Base 0.80
 _ZNSt8_Rb_treeIN5rados3cls4lock11locker_id_tESt4pairIKS3_NS2_13locker_info_tEESt10_Select1stIS7_ESt4lessIS3_ESaIS7_EE10_M_insert_EPSt18_Rb_tree_node_baseSF_RKS7_@Base 0.80
 _ZNSt8_Rb_treeIN5rados3cls4lock11locker_id_tESt4pairIKS3_NS2_13locker_info_tEESt10_Select1stIS7_ESt4lessIS3_ESaIS7_EE17_M_insert_unique_ESt23_Rb_tree_const_iteratorIS7_ERKS7_@Base 0.80
 _ZNSt8_Rb_treeIN5rados3cls4lock11locker_id_tESt4pairIKS3_NS2_13locker_info_tEESt10_Select1stIS7_ESt4lessIS3_ESaIS7_EE24_M_get_insert_unique_posERS5_@Base 0.80
 _ZNSt8_Rb_treeIN5rados3cls4lock11locker_id_tESt4pairIKS3_NS2_13locker_info_tEESt10_Select1stIS7_ESt4lessIS3_ESaIS7_EE7_M_copyEPKSt13_Rb_tree_nodeIS7_EPSF_@Base 0.80
 _ZNSt8_Rb_treeIN5rados3cls4lock11locker_id_tESt4pairIKS3_NS2_13locker_info_tEESt10_Select1stIS7_ESt4lessIS3_ESaIS7_EE8_M_eraseEPSt13_Rb_tree_nodeIS7_E@Base 0.80
 _ZNSt8_Rb_treeIP7ContextS1_St9_IdentityIS1_ESt4lessIS1_ESaIS1_EE16_M_insert_uniqueERKS1_@Base 0.80
 _ZNSt8_Rb_treeIP7ContextS1_St9_IdentityIS1_ESt4lessIS1_ESaIS1_EE5eraseERKS1_@Base 0.80
 _ZNSt8_Rb_treeIP7ContextS1_St9_IdentityIS1_ESt4lessIS1_ESaIS1_EE8_M_eraseEPSt13_Rb_tree_nodeIS1_E@Base 0.80
 _ZNSt8_Rb_treeIPN12ObjectCacher10BufferHeadES2_St9_IdentityIS2_ESt4lessIS2_ESaIS2_EE16_M_insert_uniqueERKS2_@Base 0.80
 _ZNSt8_Rb_treeIPN12ObjectCacher10BufferHeadES2_St9_IdentityIS2_ESt4lessIS2_ESaIS2_EE5eraseERKS2_@Base 0.80
 _ZNSt8_Rb_treeIPN12ObjectCacher10BufferHeadES2_St9_IdentityIS2_ESt4lessIS2_ESaIS2_EE8_M_eraseEPSt13_Rb_tree_nodeIS2_E@Base 0.80
 _ZNSt8_Rb_treeIPN8Objecter10OSDSessionES2_St9_IdentityIS2_ESt4lessIS2_ESaIS2_EE16_M_insert_uniqueERKS2_@Base 0.80
 _ZNSt8_Rb_treeIPN8Objecter10OSDSessionES2_St9_IdentityIS2_ESt4lessIS2_ESaIS2_EE8_M_eraseEPSt13_Rb_tree_nodeIS2_E@Base 0.80
 _ZNSt8_Rb_treeISsSsSt9_IdentityISsESt4lessISsESaISsEE10_M_insert_EPSt18_Rb_tree_node_baseS7_RKSs@Base 0.80
 _ZNSt8_Rb_treeISsSsSt9_IdentityISsESt4lessISsESaISsEE8_M_eraseEPSt13_Rb_tree_nodeISsE@Base 0.80
 _ZNSt8_Rb_treeISsSt4pairIKSs11pool_stat_tESt10_Select1stIS3_ESt4lessISsESaIS3_EE7_M_copyEPKSt13_Rb_tree_nodeIS3_EPSB_@Base 0.80
 _ZNSt8_Rb_treeISsSt4pairIKSs11pool_stat_tESt10_Select1stIS3_ESt4lessISsESaIS3_EE8_M_eraseEPSt13_Rb_tree_nodeIS3_E@Base 0.80
 _ZNSt8_Rb_treeISsSt4pairIKSs17object_stat_sum_tESt10_Select1stIS3_ESt4lessISsESaIS3_EE7_M_copyEPKSt13_Rb_tree_nodeIS3_EPSB_@Base 0.80
 _ZNSt8_Rb_treeISsSt4pairIKSs17object_stat_sum_tESt10_Select1stIS3_ESt4lessISsESaIS3_EE8_M_eraseEPSt13_Rb_tree_nodeIS3_E@Base 0.80
 _ZNSt8_Rb_treeISsSt4pairIKSs23ceph_mon_subscribe_itemESt10_Select1stIS3_ESt4lessISsESaIS3_EE11equal_rangeERS1_@Base 0.80
 _ZNSt8_Rb_treeISsSt4pairIKSs23ceph_mon_subscribe_itemESt10_Select1stIS3_ESt4lessISsESaIS3_EE17_M_insert_unique_ESt23_Rb_tree_const_iteratorIS3_ERKS3_@Base 0.80
 _ZNSt8_Rb_treeISsSt4pairIKSs23ceph_mon_subscribe_itemESt10_Select1stIS3_ESt4lessISsESaIS3_EE24_M_get_insert_unique_posERS1_@Base 0.80
 _ZNSt8_Rb_treeISsSt4pairIKSs23ceph_mon_subscribe_itemESt10_Select1stIS3_ESt4lessISsESaIS3_EE8_M_eraseEPSt13_Rb_tree_nodeIS3_E@Base 0.80
 _ZNSt8_Rb_treeISsSt4pairIKSsN4ceph6buffer4listEESt10_Select1stIS5_ESt4lessISsESaIS5_EE17_M_insert_unique_ESt23_Rb_tree_const_iteratorIS5_ERKS5_@Base 0.80
 _ZNSt8_Rb_treeISsSt4pairIKSsN4ceph6buffer4listEESt10_Select1stIS5_ESt4lessISsESaIS5_EE24_M_get_insert_unique_posERS1_@Base 0.80
 _ZNSt8_Rb_treeISsSt4pairIKSsN4ceph6buffer4listEESt10_Select1stIS5_ESt4lessISsESaIS5_EE8_M_eraseEPSt13_Rb_tree_nodeIS5_E@Base 0.80
 _ZNSt8_Rb_treeISsSt4pairIKSsN6librbd8SnapInfoEESt10_Select1stIS4_ESt4lessISsESaIS4_EE10_M_insert_EPSt18_Rb_tree_node_baseSC_RKS4_@Base 0.80
 _ZNSt8_Rb_treeISsSt4pairIKSsN6librbd8SnapInfoEESt10_Select1stIS4_ESt4lessISsESaIS4_EE8_M_eraseEPSt13_Rb_tree_nodeIS4_E@Base 0.80
 _ZNSt8_Rb_treeISsSt4pairIKSsSsESt10_Select1stIS2_ESt4lessISsESaIS2_EE10_M_insert_EPSt18_Rb_tree_node_baseSA_RKS2_@Base 0.80
 _ZNSt8_Rb_treeISsSt4pairIKSsSsESt10_Select1stIS2_ESt4lessISsESaIS2_EE17_M_insert_unique_ESt23_Rb_tree_const_iteratorIS2_ERKS2_@Base 0.80
 _ZNSt8_Rb_treeISsSt4pairIKSsSsESt10_Select1stIS2_ESt4lessISsESaIS2_EE24_M_get_insert_unique_posERS1_@Base 0.80
 _ZNSt8_Rb_treeISsSt4pairIKSsSsESt10_Select1stIS2_ESt4lessISsESaIS2_EE8_M_eraseEPSt13_Rb_tree_nodeIS2_E@Base 0.80
 _ZNSt8_Rb_treeISsSt4pairIKSsSt3mapISsSsSt4lessISsESaIS0_IS1_SsEEEESt10_Select1stIS8_ES4_SaIS8_EE8_M_eraseEPSt13_Rb_tree_nodeIS8_E@Base 0.80
 _ZNSt8_Rb_treeISsSt4pairIKSsxESt10_Select1stIS2_ESt4lessISsESaIS2_EE17_M_insert_unique_ESt23_Rb_tree_const_iteratorIS2_ERKS2_@Base 0.80
 _ZNSt8_Rb_treeISsSt4pairIKSsxESt10_Select1stIS2_ESt4lessISsESaIS2_EE24_M_get_insert_unique_posERS1_@Base 0.80
 _ZNSt8_Rb_treeISt4pairISsSsES1_St9_IdentityIS1_ESt4lessIS1_ESaIS1_EE10_M_insert_EPSt18_Rb_tree_node_baseS9_RKS1_@Base 0.80
 _ZNSt8_Rb_treeISt4pairISsSsES1_St9_IdentityIS1_ESt4lessIS1_ESaIS1_EE8_M_eraseEPSt13_Rb_tree_nodeIS1_E@Base 0.80
 _ZNSt8_Rb_treeIiSt4pairIKi11osd_xinfo_tESt10_Select1stIS3_ESt4lessIiESaIS3_EE8_M_eraseEPSt13_Rb_tree_nodeIS3_E@Base 0.80
 _ZNSt8_Rb_treeIiSt4pairIKi13entity_addr_tESt10_Select1stIS3_ESt4lessIiESaIS3_EE8_M_eraseEPSt13_Rb_tree_nodeIS3_E@Base 0.80
 _ZNSt8_Rb_treeIiSt4pairIKi6uuid_dESt10_Select1stIS3_ESt4lessIiESaIS3_EE8_M_eraseEPSt13_Rb_tree_nodeIS3_E@Base 0.80
 _ZNSt8_Rb_treeIiSt4pairIKiPN8Objecter10OSDSessionEESt10_Select1stIS5_ESt4lessIiESaIS5_EE17_M_insert_unique_ESt23_Rb_tree_const_iteratorIS5_ERKS5_@Base 0.80
 _ZNSt8_Rb_treeIiSt4pairIKiPN8Objecter10OSDSessionEESt10_Select1stIS5_ESt4lessIiESaIS5_EE24_M_get_insert_unique_posERS1_@Base 0.80
 _ZNSt8_Rb_treeIiSt4pairIKiPN8Objecter10OSDSessionEESt10_Select1stIS5_ESt4lessIiESaIS5_EE4findERS1_@Base 0.80
 _ZNSt8_Rb_treeIiSt4pairIKiPN8Objecter10OSDSessionEESt10_Select1stIS5_ESt4lessIiESaIS5_EE5eraseERS1_@Base 0.80
 _ZNSt8_Rb_treeIiSt4pairIKiPN8Objecter10OSDSessionEESt10_Select1stIS5_ESt4lessIiESaIS5_EE8_M_eraseEPSt13_Rb_tree_nodeIS5_E@Base 0.80
 _ZNSt8_Rb_treeIiSt4pairIKiS0_IjjEESt10_Select1stIS3_ESt4lessIiESaIS3_EE8_M_eraseEPSt13_Rb_tree_nodeIS3_E@Base 0.80
 _ZNSt8_Rb_treeIiSt4pairIKihESt10_Select1stIS2_ESt4lessIiESaIS2_EE8_M_eraseEPSt13_Rb_tree_nodeIS2_E@Base 0.80
 _ZNSt8_Rb_treeIiSt4pairIKijESt10_Select1stIS2_ESt4lessIiESaIS2_EE8_M_eraseEPSt13_Rb_tree_nodeIS2_E@Base 0.80
 _ZNSt8_Rb_treeIjSt4pairIKjN4ceph6buffer4listEESt10_Select1stIS5_ESt4lessIjESaIS5_EE17_M_insert_unique_ESt23_Rb_tree_const_iteratorIS5_ERKS5_@Base 0.80
 _ZNSt8_Rb_treeIjSt4pairIKjN4ceph6buffer4listEESt10_Select1stIS5_ESt4lessIjESaIS5_EE24_M_get_insert_unique_posERS1_@Base 0.80
 _ZNSt8_Rb_treeIjSt4pairIKjSt4listIS0_IP7ContextiESaIS5_EEESt10_Select1stIS8_ESt4lessIjESaIS8_EE17_M_insert_unique_ESt23_Rb_tree_const_iteratorIS8_ERKS8_@Base 0.80
 _ZNSt8_Rb_treeIjSt4pairIKjSt4listIS0_IP7ContextiESaIS5_EEESt10_Select1stIS8_ESt4lessIjESaIS8_EE24_M_get_insert_unique_posERS1_@Base 0.80
 _ZNSt8_Rb_treeIjSt4pairIKjSt4listIS0_IP7ContextiESaIS5_EEESt10_Select1stIS8_ESt4lessIjESaIS8_EE8_M_eraseEPSt13_Rb_tree_nodeIS8_E@Base 0.80
 _ZNSt8_Rb_treeIxSt4pairIKx9pg_pool_tESt10_Select1stIS3_ESt4lessIxESaIS3_EE8_M_eraseEPSt13_Rb_tree_nodeIS3_E@Base 0.80
 _ZNSt8_Rb_treeIxSt4pairIKxPN12ObjectCacher10BufferHeadEESt10_Select1stIS5_ESt4lessIxESaIS5_EE16_M_insert_uniqueISt17_Rb_tree_iteratorIS5_EEEvT_SF_@Base 0.80
 _ZNSt8_Rb_treeIxSt4pairIKxPN12ObjectCacher10BufferHeadEESt10_Select1stIS5_ESt4lessIxESaIS5_EE17_M_insert_unique_ESt23_Rb_tree_const_iteratorIS5_ERKS5_@Base 0.80
 _ZNSt8_Rb_treeIxSt4pairIKxPN12ObjectCacher10BufferHeadEESt10_Select1stIS5_ESt4lessIxESaIS5_EE24_M_get_insert_unique_posERS1_@Base 0.80
 _ZNSt8_Rb_treeIxSt4pairIKxPN12ObjectCacher10BufferHeadEESt10_Select1stIS5_ESt4lessIxESaIS5_EE5eraseERS1_@Base 0.80
 _ZNSt8_Rb_treeIxSt4pairIKxPN12ObjectCacher10BufferHeadEESt10_Select1stIS5_ESt4lessIxESaIS5_EE8_M_eraseEPSt13_Rb_tree_nodeIS5_E@Base 0.80
 _ZNSt8_Rb_treeIxSt4pairIKxSsESt10_Select1stIS2_ESt4lessIxESaIS2_EE8_M_eraseEPSt13_Rb_tree_nodeIS2_E@Base 0.80
 _ZNSt8_Rb_treeIxSt4pairIKxSt4listIP7ContextSaIS4_EEESt10_Select1stIS7_ESt4lessIxESaIS7_EE17_M_insert_unique_ESt23_Rb_tree_const_iteratorIS7_ERKS7_@Base 0.80
 _ZNSt8_Rb_treeIxSt4pairIKxSt4listIP7ContextSaIS4_EEESt10_Select1stIS7_ESt4lessIxESaIS7_EE24_M_get_insert_unique_posERS1_@Base 0.80
 _ZNSt8_Rb_treeIxSt4pairIKxSt4listIP7ContextSaIS4_EEESt10_Select1stIS7_ESt4lessIxESaIS7_EE8_M_eraseEPSt13_Rb_tree_nodeIS7_E@Base 0.80
 _ZNSt8_Rb_treeIxxSt9_IdentityIxESt4lessIxESaIxEE8_M_eraseEPSt13_Rb_tree_nodeIxE@Base 0.80
 _ZNSt8_Rb_treeIySt4pairIKyN4ceph6buffer4listEESt10_Select1stIS5_ESt4lessIyESaIS5_EE17_M_insert_unique_ESt23_Rb_tree_const_iteratorIS5_ERKS5_@Base 0.80
 _ZNSt8_Rb_treeIySt4pairIKyN4ceph6buffer4listEESt10_Select1stIS5_ESt4lessIyESaIS5_EE24_M_get_insert_unique_posERS1_@Base 0.80
 _ZNSt8_Rb_treeIySt4pairIKyN4ceph6buffer4listEESt10_Select1stIS5_ESt4lessIyESaIS5_EE8_M_eraseEPSt13_Rb_tree_nodeIS5_E@Base 0.80
 _ZNSt8_Rb_treeIySt4pairIKyPN8Objecter10PoolStatOpEESt10_Select1stIS5_ESt4lessIyESaIS5_EE17_M_insert_unique_ESt23_Rb_tree_const_iteratorIS5_ERKS5_@Base 0.80
 _ZNSt8_Rb_treeIySt4pairIKyPN8Objecter10PoolStatOpEESt10_Select1stIS5_ESt4lessIyESaIS5_EE24_M_get_insert_unique_posERS1_@Base 0.80
 _ZNSt8_Rb_treeIySt4pairIKyPN8Objecter10PoolStatOpEESt10_Select1stIS5_ESt4lessIyESaIS5_EE8_M_eraseEPSt13_Rb_tree_nodeIS5_E@Base 0.80
 _ZNSt8_Rb_treeIySt4pairIKyPN8Objecter2OpEESt10_Select1stIS5_ESt4lessIyESaIS5_EE12_M_erase_auxESt23_Rb_tree_const_iteratorIS5_E@Base 0.80
 _ZNSt8_Rb_treeIySt4pairIKyPN8Objecter2OpEESt10_Select1stIS5_ESt4lessIyESaIS5_EE17_M_insert_unique_ESt23_Rb_tree_const_iteratorIS5_ERKS5_@Base 0.80
 _ZNSt8_Rb_treeIySt4pairIKyPN8Objecter2OpEESt10_Select1stIS5_ESt4lessIyESaIS5_EE24_M_get_insert_unique_posERS1_@Base 0.80
 _ZNSt8_Rb_treeIySt4pairIKyPN8Objecter2OpEESt10_Select1stIS5_ESt4lessIyESaIS5_EE4findERS1_@Base 0.80
 _ZNSt8_Rb_treeIySt4pairIKyPN8Objecter2OpEESt10_Select1stIS5_ESt4lessIyESaIS5_EE5eraseERS1_@Base 0.80
 _ZNSt8_Rb_treeIySt4pairIKyPN8Objecter2OpEESt10_Select1stIS5_ESt4lessIyESaIS5_EE8_M_eraseEPSt13_Rb_tree_nodeIS5_E@Base 0.80
 _ZNSt8_Rb_treeIySt4pairIKyPN8Objecter6PoolOpEESt10_Select1stIS5_ESt4lessIyESaIS5_EE17_M_insert_unique_ESt23_Rb_tree_const_iteratorIS5_ERKS5_@Base 0.80
 _ZNSt8_Rb_treeIySt4pairIKyPN8Objecter6PoolOpEESt10_Select1stIS5_ESt4lessIyESaIS5_EE24_M_get_insert_unique_posERS1_@Base 0.80
 _ZNSt8_Rb_treeIySt4pairIKyPN8Objecter6PoolOpEESt10_Select1stIS5_ESt4lessIyESaIS5_EE8_M_eraseEPSt13_Rb_tree_nodeIS5_E@Base 0.80
 _ZNSt8_Rb_treeIySt4pairIKyPN8Objecter8LingerOpEESt10_Select1stIS5_ESt4lessIyESaIS5_EE12_M_erase_auxESt23_Rb_tree_const_iteratorIS5_E@Base 0.80
 _ZNSt8_Rb_treeIySt4pairIKyPN8Objecter8LingerOpEESt10_Select1stIS5_ESt4lessIyESaIS5_EE17_M_insert_unique_ESt23_Rb_tree_const_iteratorIS5_ERKS5_@Base 0.80
 _ZNSt8_Rb_treeIySt4pairIKyPN8Objecter8LingerOpEESt10_Select1stIS5_ESt4lessIyESaIS5_EE24_M_get_insert_unique_posERS1_@Base 0.80
 _ZNSt8_Rb_treeIySt4pairIKyPN8Objecter8LingerOpEESt10_Select1stIS5_ESt4lessIyESaIS5_EE4findERS1_@Base 0.80
 _ZNSt8_Rb_treeIySt4pairIKyPN8Objecter8LingerOpEESt10_Select1stIS5_ESt4lessIyESaIS5_EE8_M_eraseEPSt13_Rb_tree_nodeIS5_E@Base 0.80
 _ZNSt8_Rb_treeIySt4pairIKyPN8Objecter8StatfsOpEESt10_Select1stIS5_ESt4lessIyESaIS5_EE17_M_insert_unique_ESt23_Rb_tree_const_iteratorIS5_ERKS5_@Base 0.80
 _ZNSt8_Rb_treeIySt4pairIKyPN8Objecter8StatfsOpEESt10_Select1stIS5_ESt4lessIyESaIS5_EE24_M_get_insert_unique_posERS1_@Base 0.80
 _ZNSt8_Rb_treeIySt4pairIKyPN8Objecter8StatfsOpEESt10_Select1stIS5_ESt4lessIyESaIS5_EE8_M_eraseEPSt13_Rb_tree_nodeIS5_E@Base 0.80
 _ZNSt8_Rb_treeIySt4pairIKyPN8Objecter9CommandOpEESt10_Select1stIS5_ESt4lessIyESaIS5_EE12_M_erase_auxESt23_Rb_tree_const_iteratorIS5_E@Base 0.80
 _ZNSt8_Rb_treeIySt4pairIKyPN8Objecter9CommandOpEESt10_Select1stIS5_ESt4lessIyESaIS5_EE17_M_insert_unique_ESt23_Rb_tree_const_iteratorIS5_ERKS5_@Base 0.80
 _ZNSt8_Rb_treeIySt4pairIKyPN8Objecter9CommandOpEESt10_Select1stIS5_ESt4lessIyESaIS5_EE24_M_get_insert_unique_posERS1_@Base 0.80
 _ZNSt8_Rb_treeIySt4pairIKyPN8Objecter9CommandOpEESt10_Select1stIS5_ESt4lessIyESaIS5_EE4findERS1_@Base 0.80
 _ZNSt8_Rb_treeIySt4pairIKyPN8Objecter9CommandOpEESt10_Select1stIS5_ESt4lessIyESaIS5_EE8_M_eraseEPSt13_Rb_tree_nodeIS5_E@Base 0.80
 _ZNSt8_Rb_treeIySt4pairIKyS0_IN4ceph6buffer4listEiEESt10_Select1stIS6_ESt4lessIyESaIS6_EE17_M_insert_unique_ESt23_Rb_tree_const_iteratorIS6_ERKS6_@Base 0.80
 _ZNSt8_Rb_treeIySt4pairIKyS0_IN4ceph6buffer4listEiEESt10_Select1stIS6_ESt4lessIyESaIS6_EE24_M_get_insert_unique_posERS1_@Base 0.80
 _ZNSt8_Rb_treeIySt4pairIKyS0_IN4ceph6buffer4listEiEESt10_Select1stIS6_ESt4lessIyESaIS6_EE8_M_eraseEPSt13_Rb_tree_nodeIS6_E@Base 0.80
 _ZNSt8_Rb_treeIySt4pairIKyS0_IN4ceph6buffer4listEyEESt10_Select1stIS6_ESt4lessIyESaIS6_EE17_M_insert_unique_ESt23_Rb_tree_const_iteratorIS6_ERKS6_@Base 0.80
 _ZNSt8_Rb_treeIySt4pairIKyS0_IN4ceph6buffer4listEyEESt10_Select1stIS6_ESt4lessIyESaIS6_EE24_M_get_insert_unique_posERS1_@Base 0.80
 _ZNSt8_Rb_treeIySt4pairIKyS0_IN4ceph6buffer4listEyEESt10_Select1stIS6_ESt4lessIyESaIS6_EE8_M_eraseEPSt13_Rb_tree_nodeIS6_E@Base 0.80
 _ZNSt8_Rb_treeIySt4pairIKySt4listIP7ContextSaIS4_EEESt10_Select1stIS7_ESt4lessIyESaIS7_EE12_M_erase_auxESt23_Rb_tree_const_iteratorIS7_E@Base 0.80
 _ZNSt8_Rb_treeIySt4pairIKySt4listIP7ContextSaIS4_EEESt10_Select1stIS7_ESt4lessIyESaIS7_EE17_M_insert_unique_ESt23_Rb_tree_const_iteratorIS7_ERKS7_@Base 0.80
 _ZNSt8_Rb_treeIySt4pairIKySt4listIP7ContextSaIS4_EEESt10_Select1stIS7_ESt4lessIyESaIS7_EE24_M_get_insert_unique_posERS1_@Base 0.80
 _ZNSt8_Rb_treeIySt4pairIKySt4listIP7ContextSaIS4_EEESt10_Select1stIS7_ESt4lessIyESaIS7_EE5eraseERS1_@Base 0.80
 _ZNSt8_Rb_treeIySt4pairIKySt4listIP7ContextSaIS4_EEESt10_Select1stIS7_ESt4lessIyESaIS7_EE8_M_eraseEPSt13_Rb_tree_nodeIS7_E@Base 0.80
 _ZNSt8_Rb_treeIySt4pairIKyyESt10_Select1stIS2_ESt4lessIyESaIS2_EE12_M_erase_auxESt23_Rb_tree_const_iteratorIS2_E@Base 0.80
 _ZNSt8_Rb_treeIySt4pairIKyyESt10_Select1stIS2_ESt4lessIyESaIS2_EE17_M_insert_unique_ESt23_Rb_tree_const_iteratorIS2_ERKS2_@Base 0.80
 _ZNSt8_Rb_treeIySt4pairIKyyESt10_Select1stIS2_ESt4lessIyESaIS2_EE24_M_get_insert_unique_posERS1_@Base 0.80
 _ZNSt8_Rb_treeIySt4pairIKyyESt10_Select1stIS2_ESt4lessIyESaIS2_EE8_M_eraseEPSt13_Rb_tree_nodeIS2_E@Base 0.80
 _ZNSt8_Rb_treeIyySt9_IdentityIyESt4lessIyESaIyEE16_M_insert_uniqueERKy@Base 0.80
 _ZNSt8_Rb_treeIyySt9_IdentityIyESt4lessIyESaIyEE5eraseERKy@Base 0.80
 _ZNSt8_Rb_treeIyySt9_IdentityIyESt4lessIyESaIyEE8_M_eraseEPSt13_Rb_tree_nodeIyE@Base 0.80
 _ZSt9__find_ifIN9__gnu_cxx17__normal_iteratorIPySt6vectorIySaIyEEEENS0_5__ops16_Iter_equals_valIKyEEET_SB_SB_T0_St26random_access_iterator_tag@Base 0.80
 _ZStplIcSt11char_traitsIcESaIcEESbIT_T0_T1_EPKS3_RKS6_@Base 0.80
 _ZStplIcSt11char_traitsIcESaIcEESbIT_T0_T1_ERKS6_S8_@Base 0.80
 _ZTI10C_CancelOp@Base 0.80
 _ZTI10C_SafeCond@Base 0.80
 _ZTI11MMonCommand@Base 0.80
 _ZTI12C_PurgeRange@Base 0.80
 _ZTI13MGetPoolStats@Base 0.80
 _ZTI14C_CancelPoolOp@Base 0.80
 _ZTI15AdminSocketHook@Base 0.80
 _ZTI16C_CancelStatfsOp@Base 0.80
 _ZTI16C_SimpleThrottle@Base 0.80
 _ZTI16RefCountedObject@Base 0.80
 _ZTI16WritebackHandler@Base 0.80
 _ZTI17C_CancelCommandOp@Base 0.80
 _ZTI17C_SelfmanagedSnap@Base 0.80
 _ZTI18C_CancelPoolStatOp@Base 0.80
 _ZTI19C_Journaler_Prezero@Base 0.80
 _ZTI19PaxosServiceMessage@Base 0.80
 _ZTI21C_Objecter_GetVersion@Base 0.80
 _ZTI4Cond@Base 0.80
 _ZTI5MPing@Base 0.80
 _ZTI6C_Cond@Base 0.80
 _ZTI6MOSDOp@Base 0.80
 _ZTI6RWLock@Base 0.80
 _ZTI7Context@Base 0.80
 _ZTI7MPoolOp@Base 0.80
 _ZTI7MStatfs@Base 0.80
 _ZTI8C_Gather@Base 0.80
 _ZTI8MCommand@Base 0.80
 _ZTI8Objecter@Base 0.80
 _ZTIN12ObjectCacher11C_RetryReadE@Base 0.80
 _ZTIN12ObjectCacher12C_ReadFinishE@Base 0.80
 _ZTIN12ObjectCacher13C_WriteCommitE@Base 0.80
 _ZTIN12ObjectCacher13FlusherThreadE@Base 0.80
 _ZTIN12ObjectCacher14C_WaitForWriteE@Base 0.80
 _ZTIN4ceph6buffer15malformed_inputE@Base 0.80
 _ZTIN4ceph6buffer5errorE@Base 0.80
 _ZTIN5Filer7C_ProbeE@Base 0.80
 _ZTIN6HitSet6ParamsE@Base 0.80
 _ZTIN6librbd10AioRequestE@Base 0.80
 _ZTIN6librbd10C_AioWriteE@Base 0.80
 _ZTIN6librbd10C_CopyReadE@Base 0.80
 _ZTIN6librbd11AioTruncateE@Base 0.80
 _ZTIN6librbd11C_CacheReadE@Base 0.80
 _ZTIN6librbd11C_CopyWriteE@Base 0.80
 _ZTIN6librbd13AbstractWriteE@Base 0.80
 _ZTIN6librbd14C_OrderedWriteE@Base 0.80
 _ZTIN6librbd15LibrbdWritebackE@Base 0.80
 _ZTIN6librbd15ProgressContextE@Base 0.80
 _ZTIN6librbd16CProgressContextE@Base 0.80
 _ZTIN6librbd19NoOpProgressContextE@Base 0.80
 _ZTIN6librbd7AioReadE@Base 0.80
 _ZTIN6librbd7AioZeroE@Base 0.80
 _ZTIN6librbd8AioWriteE@Base 0.80
 _ZTIN6librbd8WatchCtxE@Base 0.80
 _ZTIN6librbd9AioRemoveE@Base 0.80
 _ZTIN6librbd9C_AioReadE@Base 0.80
 _ZTIN6librbd9C_RequestE@Base 0.80
 _ZTIN8C_Gather11C_GatherSubE@Base 0.80
 _ZTIN8Finisher14FinisherThreadE@Base 0.80
 _ZTIN8Objecter12C_Linger_AckE@Base 0.80
 _ZTIN8Objecter15C_Linger_CommitE@Base 0.80
 _ZTIN8Objecter15C_Op_Map_LatestE@Base 0.80
 _ZTIN8Objecter16RequestStateHookE@Base 0.80
 _ZTIN8Objecter19C_Linger_Map_LatestE@Base 0.80
 _ZTIN8Objecter20C_Command_Map_LatestE@Base 0.80
 _ZTIN8Objecter6C_ListE@Base 0.80
 _ZTIN8Objecter6C_StatE@Base 0.80
 _ZTIN8Objecter6C_TickE@Base 0.80
 _ZTIN8Objecter8C_SGReadE@Base 0.80
 _ZTIN8Objecter8LingerOpE@Base 0.80
 _ZTIN8librados19ObjectReadOperationE@Base 0.80
 _ZTIN8librados20ObjectWriteOperationE@Base 0.80
 _ZTIN9Journaler10C_ProbeEndE@Base 0.80
 _ZTIN9Journaler10C_ReadHeadE@Base 0.80
 _ZTIN9Journaler11C_RetryReadE@Base 0.80
 _ZTIN9Journaler11C_WriteHeadE@Base 0.80
 _ZTIN9Journaler12C_DelayFlushE@Base 0.80
 _ZTIN9Journaler12C_RereadHeadE@Base 0.80
 _ZTIN9Journaler17C_RereadHeadProbeE@Base 0.80
 _ZTIN9Journaler6C_ReadE@Base 0.80
 _ZTIN9Journaler6C_TrimE@Base 0.80
 _ZTIN9Journaler7C_FlushE@Base 0.80
 _ZTIN9Journaler9C_ReProbeE@Base 0.80
 _ZTS10C_CancelOp@Base 0.80
 _ZTS10C_SafeCond@Base 0.80
 _ZTS11MMonCommand@Base 0.80
 _ZTS12C_PurgeRange@Base 0.80
 _ZTS13MGetPoolStats@Base 0.80
 _ZTS14C_CancelPoolOp@Base 0.80
 _ZTS15AdminSocketHook@Base 0.80
 _ZTS16C_CancelStatfsOp@Base 0.80
 _ZTS16C_SimpleThrottle@Base 0.80
 _ZTS16RefCountedObject@Base 0.80
 _ZTS16WritebackHandler@Base 0.80
 _ZTS17C_CancelCommandOp@Base 0.80
 _ZTS17C_SelfmanagedSnap@Base 0.80
 _ZTS18C_CancelPoolStatOp@Base 0.80
 _ZTS19C_Journaler_Prezero@Base 0.80
 _ZTS19PaxosServiceMessage@Base 0.80
 _ZTS21C_Objecter_GetVersion@Base 0.80
 _ZTS4Cond@Base 0.80
 _ZTS5MPing@Base 0.80
 _ZTS6C_Cond@Base 0.80
 _ZTS6MOSDOp@Base 0.80
 _ZTS6RWLock@Base 0.80
 _ZTS7Context@Base 0.80
 _ZTS7MPoolOp@Base 0.80
 _ZTS7MStatfs@Base 0.80
 _ZTS8C_Gather@Base 0.80
 _ZTS8MCommand@Base 0.80
 _ZTS8Objecter@Base 0.80
 _ZTSN12ObjectCacher11C_RetryReadE@Base 0.80
 _ZTSN12ObjectCacher12C_ReadFinishE@Base 0.80
 _ZTSN12ObjectCacher13C_WriteCommitE@Base 0.80
 _ZTSN12ObjectCacher13FlusherThreadE@Base 0.80
 _ZTSN12ObjectCacher14C_WaitForWriteE@Base 0.80
 _ZTSN4ceph6buffer15malformed_inputE@Base 0.80
 _ZTSN4ceph6buffer5errorE@Base 0.80
 _ZTSN5Filer7C_ProbeE@Base 0.80
 _ZTSN6HitSet6ParamsE@Base 0.80
 _ZTSN6librbd10AioRequestE@Base 0.80
 _ZTSN6librbd10C_AioWriteE@Base 0.80
 _ZTSN6librbd10C_CopyReadE@Base 0.80
 _ZTSN6librbd11AioTruncateE@Base 0.80
 _ZTSN6librbd11C_CacheReadE@Base 0.80
 _ZTSN6librbd11C_CopyWriteE@Base 0.80
 _ZTSN6librbd13AbstractWriteE@Base 0.80
 _ZTSN6librbd14C_OrderedWriteE@Base 0.80
 _ZTSN6librbd15LibrbdWritebackE@Base 0.80
 _ZTSN6librbd15ProgressContextE@Base 0.80
 _ZTSN6librbd16CProgressContextE@Base 0.80
 _ZTSN6librbd19NoOpProgressContextE@Base 0.80
 _ZTSN6librbd7AioReadE@Base 0.80
 _ZTSN6librbd7AioZeroE@Base 0.80
 _ZTSN6librbd8AioWriteE@Base 0.80
 _ZTSN6librbd8WatchCtxE@Base 0.80
 _ZTSN6librbd9AioRemoveE@Base 0.80
 _ZTSN6librbd9C_AioReadE@Base 0.80
 _ZTSN6librbd9C_RequestE@Base 0.80
 _ZTSN8C_Gather11C_GatherSubE@Base 0.80
 _ZTSN8Finisher14FinisherThreadE@Base 0.80
 _ZTSN8Objecter12C_Linger_AckE@Base 0.80
 _ZTSN8Objecter15C_Linger_CommitE@Base 0.80
 _ZTSN8Objecter15C_Op_Map_LatestE@Base 0.80
 _ZTSN8Objecter16RequestStateHookE@Base 0.80
 _ZTSN8Objecter19C_Linger_Map_LatestE@Base 0.80
 _ZTSN8Objecter20C_Command_Map_LatestE@Base 0.80
 _ZTSN8Objecter6C_ListE@Base 0.80
 _ZTSN8Objecter6C_StatE@Base 0.80
 _ZTSN8Objecter6C_TickE@Base 0.80
 _ZTSN8Objecter8C_SGReadE@Base 0.80
 _ZTSN8Objecter8LingerOpE@Base 0.80
 _ZTSN8librados19ObjectReadOperationE@Base 0.80
 _ZTSN8librados20ObjectWriteOperationE@Base 0.80
 _ZTSN9Journaler10C_ProbeEndE@Base 0.80
 _ZTSN9Journaler10C_ReadHeadE@Base 0.80
 _ZTSN9Journaler11C_RetryReadE@Base 0.80
 _ZTSN9Journaler11C_WriteHeadE@Base 0.80
 _ZTSN9Journaler12C_DelayFlushE@Base 0.80
 _ZTSN9Journaler12C_RereadHeadE@Base 0.80
 _ZTSN9Journaler17C_RereadHeadProbeE@Base 0.80
 _ZTSN9Journaler6C_ReadE@Base 0.80
 _ZTSN9Journaler6C_TrimE@Base 0.80
 _ZTSN9Journaler7C_FlushE@Base 0.80
 _ZTSN9Journaler9C_ReProbeE@Base 0.80
 _ZTV10C_CancelOp@Base 0.80
 _ZTV10C_SafeCond@Base 0.80
 _ZTV11MMonCommand@Base 0.80
 _ZTV12C_PurgeRange@Base 0.80
 _ZTV13MGetPoolStats@Base 0.80
 _ZTV14C_CancelPoolOp@Base 0.80
 _ZTV15AdminSocketHook@Base 0.80
 _ZTV16C_CancelStatfsOp@Base 0.80
 _ZTV16C_SimpleThrottle@Base 0.80
 _ZTV16RefCountedObject@Base 0.80
 _ZTV16WritebackHandler@Base 0.80
 _ZTV17C_CancelCommandOp@Base 0.80
 _ZTV17C_SelfmanagedSnap@Base 0.80
 _ZTV18C_CancelPoolStatOp@Base 0.80
 _ZTV19C_Journaler_Prezero@Base 0.80
 _ZTV19PaxosServiceMessage@Base 0.80
 _ZTV21C_Objecter_GetVersion@Base 0.80
 _ZTV4Cond@Base 0.80
 _ZTV5MPing@Base 0.80
 _ZTV6C_Cond@Base 0.80
 _ZTV6MOSDOp@Base 0.80
 _ZTV6RWLock@Base 0.80
 _ZTV7Context@Base 0.80
 _ZTV7MPoolOp@Base 0.80
 _ZTV7MStatfs@Base 0.80
 _ZTV8C_Gather@Base 0.80
 _ZTV8MCommand@Base 0.80
 _ZTV8Objecter@Base 0.80
 _ZTVN12ObjectCacher11C_RetryReadE@Base 0.80
 _ZTVN12ObjectCacher12C_ReadFinishE@Base 0.80
 _ZTVN12ObjectCacher13C_WriteCommitE@Base 0.80
 _ZTVN12ObjectCacher13FlusherThreadE@Base 0.80
 _ZTVN12ObjectCacher14C_WaitForWriteE@Base 0.80
 _ZTVN4ceph6buffer15malformed_inputE@Base 0.80
 _ZTVN4ceph6buffer5errorE@Base 0.80
 _ZTVN5Filer7C_ProbeE@Base 0.80
 _ZTVN6HitSet6ParamsE@Base 0.80
 _ZTVN6librbd10AioRequestE@Base 0.80
 _ZTVN6librbd10C_AioWriteE@Base 0.80
 _ZTVN6librbd10C_CopyReadE@Base 0.80
 _ZTVN6librbd11AioTruncateE@Base 0.80
 _ZTVN6librbd11C_CacheReadE@Base 0.80
 _ZTVN6librbd11C_CopyWriteE@Base 0.80
 _ZTVN6librbd13AbstractWriteE@Base 0.80
 _ZTVN6librbd14C_OrderedWriteE@Base 0.80
 _ZTVN6librbd15LibrbdWritebackE@Base 0.80
 _ZTVN6librbd15ProgressContextE@Base 0.80
 _ZTVN6librbd16CProgressContextE@Base 0.80
 _ZTVN6librbd19NoOpProgressContextE@Base 0.80
 _ZTVN6librbd7AioReadE@Base 0.80
 _ZTVN6librbd7AioZeroE@Base 0.80
 _ZTVN6librbd8AioWriteE@Base 0.80
 _ZTVN6librbd8WatchCtxE@Base 0.80
 _ZTVN6librbd9AioRemoveE@Base 0.80
 _ZTVN6librbd9C_AioReadE@Base 0.80
 _ZTVN6librbd9C_RequestE@Base 0.80
 _ZTVN8C_Gather11C_GatherSubE@Base 0.80
 _ZTVN8Finisher14FinisherThreadE@Base 0.80
 _ZTVN8Objecter12C_Linger_AckE@Base 0.80
 _ZTVN8Objecter15C_Linger_CommitE@Base 0.80
 _ZTVN8Objecter15C_Op_Map_LatestE@Base 0.80
 _ZTVN8Objecter16RequestStateHookE@Base 0.80
 _ZTVN8Objecter19C_Linger_Map_LatestE@Base 0.80
 _ZTVN8Objecter20C_Command_Map_LatestE@Base 0.80
 _ZTVN8Objecter6C_ListE@Base 0.80
 _ZTVN8Objecter6C_StatE@Base 0.80
 _ZTVN8Objecter6C_TickE@Base 0.80
 _ZTVN8Objecter8C_SGReadE@Base 0.80
 _ZTVN8Objecter8LingerOpE@Base 0.80
 _ZTVN8librados19ObjectReadOperationE@Base 0.80
 _ZTVN8librados20ObjectWriteOperationE@Base 0.80
 _ZTVN9Journaler10C_ProbeEndE@Base 0.80
 _ZTVN9Journaler10C_ReadHeadE@Base 0.80
 _ZTVN9Journaler11C_RetryReadE@Base 0.80
 _ZTVN9Journaler11C_WriteHeadE@Base 0.80
 _ZTVN9Journaler12C_DelayFlushE@Base 0.80
 _ZTVN9Journaler12C_RereadHeadE@Base 0.80
 _ZTVN9Journaler17C_RereadHeadProbeE@Base 0.80
 _ZTVN9Journaler6C_ReadE@Base 0.80
 _ZTVN9Journaler6C_TrimE@Base 0.80
 _ZTVN9Journaler7C_FlushE@Base 0.80
 _ZTVN9Journaler9C_ReProbeE@Base 0.80
 _ZlsI5OSDOpERSoS1_RKSt6vectorIT_SaIS3_EE@Base 0.80
 _ZlsI8snapid_tERSoS1_RKSt6vectorIT_SaIS3_EE@Base 0.80
 _ZlsISt4pairIyyEERSoS2_RKSt6vectorIT_SaIS4_EE@Base 0.80
 _ZlsIiERSoS0_RKSt6vectorIT_SaIS2_EE@Base 0.80
 _ZlsIyERSoS0_RK12interval_setIT_E@Base 0.80
 _ZlsRSo8snapid_t@Base 0.80
 _ZlsRSo9inodeno_t@Base 0.80
 _ZlsRSoRK12ObjectExtent@Base 0.80
 _ZlsRSoRK13entity_inst_t@Base 0.80
 _ZlsRSoRK13entity_name_t@Base 0.80
 _ZlsRSoRK16object_locator_t@Base 0.80
 _ZlsRSoRK9sobject_t@Base 0.80
 _ZlsRSoRN12ObjectCacher10BufferHeadE@Base 0.80
 _ZlsRSoRN12ObjectCacher6ObjectE@Base 0.80
 _ZlsRSoRN9Journaler6HeaderE@Base 0.80
 rbd_aio_create_completion@Base 0.72.2
 rbd_aio_discard@Base 0.72.2
 rbd_aio_flush@Base 0.72.2
 rbd_aio_get_return_value@Base 0.72.2
 rbd_aio_is_complete@Base 0.72.2
 rbd_aio_read@Base 0.72.2
 rbd_aio_release@Base 0.72.2
 rbd_aio_wait_for_complete@Base 0.72.2
 rbd_aio_write@Base 0.72.2
 rbd_break_lock@Base 0.72.2
 rbd_clone2@Base 0.72.2
 rbd_clone@Base 0.72.2
 rbd_close@Base 0.72.2
 rbd_copy2@Base 0.72.2
 rbd_copy@Base 0.72.2
 rbd_copy_with_progress2@Base 0.72.2
 rbd_copy_with_progress@Base 0.72.2
 rbd_create2@Base 0.72.2
 rbd_create3@Base 0.72.2
 rbd_create@Base 0.72.2
 rbd_diff_iterate@Base 0.72.2
 rbd_discard@Base 0.72.2
 rbd_flatten@Base 0.72.2
 rbd_flatten_with_progress@Base 0.72.2
 rbd_flush@Base 0.72.2
 rbd_get_features@Base 0.72.2
 rbd_get_old_format@Base 0.72.2
 rbd_get_overlap@Base 0.72.2
 rbd_get_parent_info@Base 0.72.2
 rbd_get_size@Base 0.72.2
 rbd_get_stripe_count@Base 0.72.2
 rbd_get_stripe_unit@Base 0.72.2
 rbd_invalidate_cache@Base 0.80.5-2~
 rbd_list@Base 0.72.2
 rbd_list_children@Base 0.72.2
 rbd_list_lockers@Base 0.72.2
 rbd_lock_exclusive@Base 0.72.2
 rbd_lock_shared@Base 0.72.2
 rbd_open@Base 0.72.2
 rbd_open_read_only@Base 0.72.2
 rbd_read@Base 0.72.2
 rbd_read_iterate2@Base 0.72.2
 rbd_read_iterate@Base 0.72.2
 rbd_remove@Base 0.72.2
 rbd_remove_with_progress@Base 0.72.2
 rbd_rename@Base 0.72.2
 rbd_resize@Base 0.72.2
 rbd_resize_with_progress@Base 0.72.2
 rbd_snap_create@Base 0.72.2
 rbd_snap_is_protected@Base 0.72.2
 rbd_snap_list@Base 0.72.2
 rbd_snap_list_end@Base 0.72.2
 rbd_snap_protect@Base 0.72.2
 rbd_snap_remove@Base 0.72.2
 rbd_snap_rollback@Base 0.72.2
 rbd_snap_rollback_with_progress@Base 0.72.2
 rbd_snap_set@Base 0.72.2
 rbd_snap_unprotect@Base 0.72.2
 rbd_stat@Base 0.72.2
 rbd_unlock@Base 0.72.2
 rbd_version@Base 0.72.2
 rbd_write@Base 0.72.2
